---
triple:          'arm64-apple-darwin'
binary-path:     separate_wild_encounters
relocations:
  - { offsetInCU: 0x1259, offset: 0x1259, size: 0x8, addend: 0x0, symName: __ZN8nlohmann16json_abi_v3_11_36detail9dtoa_impl36get_cached_power_for_binary_exponentEi, symObjAddr: 0x8548, symBinAddr: 0x100009188, symSize: 0xB4 }
  - { offsetInCU: 0x1284, offset: 0x1284, size: 0x8, addend: 0x0, symName: __ZZN8nlohmann16json_abi_v3_11_36detail9dtoa_impl36get_cached_power_for_binary_exponentEiE13kCachedPowers, symObjAddr: 0x14A48, symBinAddr: 0x100014768, symSize: 0x0 }
  - { offsetInCU: 0x136A, offset: 0x136A, size: 0x8, addend: 0x0, symName: __ZN8nlohmann16json_abi_v3_11_36detail9dtoa_impl16grisu2_digit_genEPcRiS4_NS2_5diyfpES5_S5_, symObjAddr: 0x85FC, symBinAddr: 0x10000923C, symSize: 0x2D8 }
  - { offsetInCU: 0x13D2, offset: 0x13D2, size: 0x8, addend: 0x0, symName: __ZN8nlohmann16json_abi_v3_11_36detail9dtoa_impl6grisu2IdEEvPcRiS5_T_, symObjAddr: 0x7FEC, symBinAddr: 0x100008C2C, symSize: 0x84 }
  - { offsetInCU: 0x149E, offset: 0x149E, size: 0x8, addend: 0x0, symName: __ZN8nlohmann16json_abi_v3_11_36detail9dtoa_impl13format_bufferEPciiii, symObjAddr: 0x8070, symBinAddr: 0x100008CB0, symSize: 0x228 }
  - { offsetInCU: 0x14B1, offset: 0x14B1, size: 0x8, addend: 0x0, symName: __ZN8nlohmann16json_abi_v3_11_36detail9dtoa_impl13format_bufferEPciiii, symObjAddr: 0x8070, symBinAddr: 0x100008CB0, symSize: 0x228 }
  - { offsetInCU: 0x15A0, offset: 0x15A0, size: 0x8, addend: 0x0, symName: __ZN8nlohmann16json_abi_v3_11_36detail9dtoa_impl18compute_boundariesIdEENS2_10boundariesET_, symObjAddr: 0x8298, symBinAddr: 0x100008ED8, symSize: 0x158 }
  - { offsetInCU: 0x15AA, offset: 0x15AA, size: 0x8, addend: 0x0, symName: __ZN8nlohmann16json_abi_v3_11_36detail9dtoa_impl18compute_boundariesIdEENS2_10boundariesET_, symObjAddr: 0x8298, symBinAddr: 0x100008ED8, symSize: 0x158 }
  - { offsetInCU: 0x17A1, offset: 0x17A1, size: 0x8, addend: 0x0, symName: __ZN8nlohmann16json_abi_v3_11_36detail9dtoa_impl6grisu2EPcRiS4_NS2_5diyfpES5_S5_, symObjAddr: 0x83F0, symBinAddr: 0x100009030, symSize: 0x158 }
  - { offsetInCU: 0x1A04, offset: 0x1A04, size: 0x8, addend: 0x0, symName: __ZN8nlohmann16json_abi_v3_11_36detail9dtoa_impl36get_cached_power_for_binary_exponentEi, symObjAddr: 0x8548, symBinAddr: 0x100009188, symSize: 0xB4 }
  - { offsetInCU: 0x1B32, offset: 0x1B32, size: 0x8, addend: 0x0, symName: __ZN8nlohmann16json_abi_v3_11_36detail9dtoa_impl16grisu2_digit_genEPcRiS4_NS2_5diyfpES5_S5_, symObjAddr: 0x85FC, symBinAddr: 0x10000923C, symSize: 0x2D8 }
  - { offsetInCU: 0x1D8C, offset: 0x1D8C, size: 0x8, addend: 0x0, symName: __ZN8nlohmann16json_abi_v3_11_36detail9dtoa_impl12grisu2_roundEPciyyyy, symObjAddr: 0x88D4, symBinAddr: 0x100009514, symSize: 0xAC }
  - { offsetInCU: 0x1E3E, offset: 0x1E3E, size: 0x8, addend: 0x0, symName: __ZNKSt3__16__treeINS_12__value_typeINS_12basic_stringIcNS_11char_traitsIcEENS_9allocatorIcEEEES7_EENS_19__map_value_compareIS7_S8_NS_4lessIS7_EELb1EEENS5_IS8_EEE4findIS7_EENS_21__tree_const_iteratorIS8_PNS_11__tree_nodeIS8_PvEElEERKT_, symObjAddr: 0x8980, symBinAddr: 0x1000095C0, symSize: 0x114 }
  - { offsetInCU: 0x2C64, offset: 0x2C64, size: 0x8, addend: 0x0, symName: __ZN8nlohmann16json_abi_v3_11_36detail9from_jsonINS0_10basic_jsonINS0_11ordered_mapENSt3__16vectorENS5_12basic_stringIcNS5_11char_traitsIcEENS5_9allocatorIcEEEEbxydSA_NS0_14adl_serializerENS6_IhNSA_IhEEEEvEEEEvRKT_RNSH_8string_tE, symObjAddr: 0x2610, symBinAddr: 0x100003250, symSize: 0xE0 }
  - { offsetInCU: 0x2FD1, offset: 0x2FD1, size: 0x8, addend: 0x0, symName: __ZN8nlohmann16json_abi_v3_11_36detail6concatINSt3__112basic_stringIcNS3_11char_traitsIcEENS3_9allocatorIcEEEEJRA29_KcPSA_EEET_DpOT0_, symObjAddr: 0x28B0, symBinAddr: 0x1000034F0, symSize: 0x84 }
  - { offsetInCU: 0x3475, offset: 0x3475, size: 0x8, addend: 0x0, symName: __ZN8nlohmann16json_abi_v3_11_36detail6concatINSt3__112basic_stringIcNS3_11char_traitsIcEENS3_9allocatorIcEEEEJRA17_KcRKS9_cS9_RA3_SA_EEET_DpOT0_, symObjAddr: 0x2A90, symBinAddr: 0x1000036D0, symSize: 0x128 }
  - { offsetInCU: 0x39C0, offset: 0x39C0, size: 0x8, addend: 0x0, symName: __ZN8nlohmann16json_abi_v3_11_36detail6concatINSt3__112basic_stringIcNS3_11char_traitsIcEENS3_9allocatorIcEEEEJS9_S9_RKS9_EEET_DpOT0_, symObjAddr: 0x2990, symBinAddr: 0x1000035D0, symSize: 0x100 }
  - { offsetInCU: 0x4496, offset: 0x4496, size: 0x8, addend: 0x0, symName: __ZN8nlohmann16json_abi_v3_11_36detail6concatINSt3__112basic_stringIcNS3_11char_traitsIcEENS3_9allocatorIcEEEEJRA51_KcPSA_EEET_DpOT0_, symObjAddr: 0x3E74, symBinAddr: 0x100004AB4, symSize: 0x84 }
  - { offsetInCU: 0x4744, offset: 0x4744, size: 0x8, addend: 0x0, symName: __ZN8nlohmann16json_abi_v3_11_36detail6concatINSt3__112basic_stringIcNS3_11char_traitsIcEENS3_9allocatorIcEEEEJRA52_KcPSA_EEET_DpOT0_, symObjAddr: 0x47E4, symBinAddr: 0x100005424, symSize: 0x84 }
  - { offsetInCU: 0x49F2, offset: 0x49F2, size: 0x8, addend: 0x0, symName: __ZN8nlohmann16json_abi_v3_11_36detail6concatINSt3__112basic_stringIcNS3_11char_traitsIcEENS3_9allocatorIcEEEEJRA56_KcPSA_EEET_DpOT0_, symObjAddr: 0x5DC0, symBinAddr: 0x100006A00, symSize: 0x84 }
  - { offsetInCU: 0x4DAB, offset: 0x4DAB, size: 0x8, addend: 0x0, symName: __ZN8nlohmann16json_abi_v3_11_36detail8to_charsIdEEPcS3_PKcT_, symObjAddr: 0x7F10, symBinAddr: 0x100008B50, symSize: 0xDC }
  - { offsetInCU: 0x4EE6, offset: 0x4EE6, size: 0x8, addend: 0x0, symName: __ZN8nlohmann16json_abi_v3_11_36detail9dtoa_impl6grisu2IdEEvPcRiS5_T_, symObjAddr: 0x7FEC, symBinAddr: 0x100008C2C, symSize: 0x84 }
  - { offsetInCU: 0x4EF9, offset: 0x4EF9, size: 0x8, addend: 0x0, symName: __ZN8nlohmann16json_abi_v3_11_36detail6concatINSt3__112basic_stringIcNS3_11char_traitsIcEENS3_9allocatorIcEEEEJRA29_KcS9_RA5_SA_S9_EEET_DpOT0_, symObjAddr: 0x7D64, symBinAddr: 0x1000089A4, symSize: 0x10C }
  - { offsetInCU: 0x53AE, offset: 0x53AE, size: 0x8, addend: 0x0, symName: __ZN8nlohmann16json_abi_v3_11_36detail6concatINSt3__112basic_stringIcNS3_11char_traitsIcEENS3_9allocatorIcEEEEJRA39_KcS9_EEET_DpOT0_, symObjAddr: 0x7E70, symBinAddr: 0x100008AB0, symSize: 0xA0 }
  - { offsetInCU: 0x62D8, offset: 0x62D8, size: 0x8, addend: 0x0, symName: __ZN8nlohmann16json_abi_v3_11_36detail6concatINSt3__112basic_stringIcNS3_11char_traitsIcEENS3_9allocatorIcEEEEJRA26_KcS9_cEEET_DpOT0_, symObjAddr: 0xE304, symBinAddr: 0x10000EF44, symSize: 0xB4 }
  - { offsetInCU: 0x664A, offset: 0x664A, size: 0x8, addend: 0x0, symName: __ZN8nlohmann16json_abi_v3_11_36detail6concatINSt3__112basic_stringIcNS3_11char_traitsIcEENS3_9allocatorIcEEEEJS9_RA12_KcS9_RA3_SA_S9_RKS9_EEET_DpOT0_, symObjAddr: 0x1018C, symBinAddr: 0x100010DCC, symSize: 0x190 }
  - { offsetInCU: 0x6FDB, offset: 0x6FDB, size: 0x8, addend: 0x0, symName: __ZN8nlohmann16json_abi_v3_11_36detail6concatINSt3__112basic_stringIcNS3_11char_traitsIcEENS3_9allocatorIcEEEEJPKcRA15_SA_S9_cEEET_DpOT0_, symObjAddr: 0x10504, symBinAddr: 0x100011144, symSize: 0xE0 }
  - { offsetInCU: 0x73C8, offset: 0x73C8, size: 0x8, addend: 0x0, symName: __ZN8nlohmann16json_abi_v3_11_36detail6concatINSt3__112basic_stringIcNS3_11char_traitsIcEENS3_9allocatorIcEEEEJRA24_KcS9_EEET_DpOT0_, symObjAddr: 0xE7DC, symBinAddr: 0x10000F41C, symSize: 0xA0 }
  - { offsetInCU: 0x7714, offset: 0x7714, size: 0x8, addend: 0x0, symName: __ZN8nlohmann16json_abi_v3_11_36detail6concatINSt3__112basic_stringIcNS3_11char_traitsIcEENS3_9allocatorIcEEEEJRA23_KcS9_EEET_DpOT0_, symObjAddr: 0xF2A4, symBinAddr: 0x10000FEE4, symSize: 0xA0 }
  - { offsetInCU: 0x7B70, offset: 0x7B70, size: 0x8, addend: 0x0, symName: __ZN8nlohmann16json_abi_v3_11_36detail6concatINSt3__112basic_stringIcNS3_11char_traitsIcEENS3_9allocatorIcEEEEJRA25_KcPSA_EEET_DpOT0_, symObjAddr: 0xEE44, symBinAddr: 0x10000FA84, symSize: 0x84 }
  - { offsetInCU: 0x83BD, offset: 0x83BD, size: 0x8, addend: 0x0, symName: __ZN8nlohmann16json_abi_v3_11_36detail6concatINSt3__112basic_stringIcNS3_11char_traitsIcEENS3_9allocatorIcEEEEJRA10_KcS9_SC_S9_EEET_DpOT0_, symObjAddr: 0x103F8, symBinAddr: 0x100011038, symSize: 0x10C }
  - { offsetInCU: 0xBDB8, offset: 0xBDB8, size: 0x8, addend: 0x0, symName: __ZN8nlohmann16json_abi_v3_11_3eqERKNS0_10basic_jsonINS0_11ordered_mapENSt3__16vectorENS3_12basic_stringIcNS3_11char_traitsIcEENS3_9allocatorIcEEEEbxydS8_NS0_14adl_serializerENS4_IhNS8_IhEEEEvEESG_, symObjAddr: 0x4D7C, symBinAddr: 0x1000059BC, symSize: 0x35C }
  - { offsetInCU: 0xC4EA, offset: 0xC4EA, size: 0x8, addend: 0x0, symName: __ZN8nlohmann16json_abi_v3_11_3lsERNSt3__113basic_ostreamIcNS1_11char_traitsIcEEEERKNS0_10basic_jsonINS0_11ordered_mapENS1_6vectorENS1_12basic_stringIcS4_NS1_9allocatorIcEEEEbxydSB_NS0_14adl_serializerENS9_IhNSB_IhEEEEvEE, symObjAddr: 0x1340, symBinAddr: 0x100001F80, symSize: 0x334 }
  - { offsetInCU: 0xCFD6, offset: 0xCFD6, size: 0x8, addend: 0x0, symName: __ZN8nlohmann16json_abi_v3_11_3rsERNSt3__113basic_istreamIcNS1_11char_traitsIcEEEERNS0_10basic_jsonINS0_11ordered_mapENS1_6vectorENS1_12basic_stringIcS4_NS1_9allocatorIcEEEEbxydSB_NS0_14adl_serializerENS9_IhNSB_IhEEEEvEE, symObjAddr: 0x234C, symBinAddr: 0x100002F8C, symSize: 0x1BC }
  - { offsetInCU: 0x28C66, offset: 0x28C66, size: 0x8, addend: 0x0, symName: __ZNSt3__116__copy_unalignedB7v160006INS_6vectorIbNS_9allocatorIbEEEELb0EEENS_14__bit_iteratorIT_Lb0EXLi0EEEENS5_IS6_XT0_EXLi0EEEES8_S7_, symObjAddr: 0xD398, symBinAddr: 0x10000DFD8, symSize: 0x23C }
  - { offsetInCU: 0x28CE2, offset: 0x28CE2, size: 0x8, addend: 0x0, symName: __ZNSt3__116__copy_unalignedB7v160006INS_6vectorIbNS_9allocatorIbEEEELb0EEENS_14__bit_iteratorIT_Lb0EXLi0EEEENS5_IS6_XT0_EXLi0EEEES8_S7_, symObjAddr: 0xD398, symBinAddr: 0x10000DFD8, symSize: 0x23C }
  - { offsetInCU: 0x32DA7, offset: 0x32DA7, size: 0x8, addend: 0x0, symName: __ZNSt3__120__throw_length_errorB7v160006EPKc, symObjAddr: 0x2C78, symBinAddr: 0x1000038B8, symSize: 0x50 }
  - { offsetInCU: 0x343D8, offset: 0x343D8, size: 0x8, addend: 0x0, symName: __ZNSt3__142__uninitialized_allocator_move_if_noexceptB7v160006INS_9allocatorINS_4pairIKNS_12basic_stringIcNS_11char_traitsIcEENS1_IcEEEEN8nlohmann16json_abi_v3_11_310basic_jsonINSA_11ordered_mapENS_6vectorES7_bxydS1_NSA_14adl_serializerENSD_IhNS1_IhEEEEvEEEEEENS_16reverse_iteratorIPSI_EESM_SM_EET2_RT_T0_T1_SN_, symObjAddr: 0x411C, symBinAddr: 0x100004D5C, symSize: 0xD4 }
  - { offsetInCU: 0x37C73, offset: 0x37C73, size: 0x8, addend: 0x0, symName: __ZNSt3__125__throw_bad_function_callB7v160006Ev, symObjAddr: 0xE87C, symBinAddr: 0x10000F4BC, symSize: 0x34 }
  - { offsetInCU: 0x37F80, offset: 0x37F80, size: 0x8, addend: 0x0, symName: __ZNSt3__127__tree_balance_after_insertB7v160006IPNS_16__tree_node_baseIPvEEEEvT_S5_, symObjAddr: 0x11E70, symBinAddr: 0x100012AB0, symSize: 0x1A0 }
  - { offsetInCU: 0x39521, offset: 0x39521, size: 0x8, addend: 0x0, symName: __ZSt28__throw_bad_array_new_lengthB7v160006v, symObjAddr: 0x2CEC, symBinAddr: 0x10000392C, symSize: 0x28 }
  - { offsetInCU: 0x3A85D, offset: 0x3A85D, size: 0x8, addend: 0x0, symName: __ZN8nlohmann16json_abi_v3_11_36detail10serializerINS0_10basic_jsonINS0_11ordered_mapENSt3__16vectorENS5_12basic_stringIcNS5_11char_traitsIcEENS5_9allocatorIcEEEEbxydSA_NS0_14adl_serializerENS6_IhNSA_IhEEEEvEEE12dump_integerIyLi0EEEvT_, symObjAddr: 0x7A4C, symBinAddr: 0x10000868C, symSize: 0x140 }
  - { offsetInCU: 0x3A881, offset: 0x3A881, size: 0x8, addend: 0x0, symName: __ZZN8nlohmann16json_abi_v3_11_36detail10serializerINS0_10basic_jsonINS0_11ordered_mapENSt3__16vectorENS5_12basic_stringIcNS5_11char_traitsIcEENS5_9allocatorIcEEEEbxydSA_NS0_14adl_serializerENS6_IhNSA_IhEEEEvEEE12dump_integerIyLi0EEEvT_E12digits_to_99, symObjAddr: 0x148B7, symBinAddr: 0x1000145D7, symSize: 0x0 }
  - { offsetInCU: 0x3A998, offset: 0x3A998, size: 0x8, addend: 0x0, symName: __ZN8nlohmann16json_abi_v3_11_36detail10serializerINS0_10basic_jsonINS0_11ordered_mapENSt3__16vectorENS5_12basic_stringIcNS5_11char_traitsIcEENS5_9allocatorIcEEEEbxydSA_NS0_14adl_serializerENS6_IhNSA_IhEEEEvEEE12dump_integerIxLi0EEEvT_, symObjAddr: 0x7B8C, symBinAddr: 0x1000087CC, symSize: 0x1D8 }
  - { offsetInCU: 0x3A9B2, offset: 0x3A9B2, size: 0x8, addend: 0x0, symName: __ZN8nlohmann16json_abi_v3_11_36detail10serializerINS0_10basic_jsonINS0_11ordered_mapENSt3__16vectorENS5_12basic_stringIcNS5_11char_traitsIcEENS5_9allocatorIcEEEEbxydSA_NS0_14adl_serializerENS6_IhNSA_IhEEEEvEEE12dump_integerIxLi0EEEvT_, symObjAddr: 0x7B8C, symBinAddr: 0x1000087CC, symSize: 0x1D8 }
  - { offsetInCU: 0x3A9D6, offset: 0x3A9D6, size: 0x8, addend: 0x0, symName: __ZZN8nlohmann16json_abi_v3_11_36detail10serializerINS0_10basic_jsonINS0_11ordered_mapENSt3__16vectorENS5_12basic_stringIcNS5_11char_traitsIcEENS5_9allocatorIcEEEEbxydSA_NS0_14adl_serializerENS6_IhNSA_IhEEEEvEEE12dump_integerIxLi0EEEvT_E12digits_to_99, symObjAddr: 0x1497F, symBinAddr: 0x10001469F, symSize: 0x0 }
  - { offsetInCU: 0x3AB3A, offset: 0x3AB3A, size: 0x8, addend: 0x0, symName: __ZN8nlohmann16json_abi_v3_11_36detail6concatINSt3__112basic_stringIcNS3_11char_traitsIcEENS3_9allocatorIcEEEEJRA29_KcS9_RA5_SA_S9_EEET_DpOT0_, symObjAddr: 0x7D64, symBinAddr: 0x1000089A4, symSize: 0x10C }
  - { offsetInCU: 0x3FA46, offset: 0x3FA46, size: 0x8, addend: 0x0, symName: __Z22SeparateIndividualMapsRN8nlohmann16json_abi_v3_11_310basic_jsonINS0_11ordered_mapENSt3__16vectorENS3_12basic_stringIcNS3_11char_traitsIcEENS3_9allocatorIcEEEEbxydS8_NS0_14adl_serializerENS4_IhNS8_IhEEEEvEERKNS3_3mapISA_SA_NS3_4lessISA_EENS8_INS3_4pairIKSA_SA_EEEEEE, symObjAddr: 0x0, symBinAddr: 0x100000C40, symSize: 0xA00 }
  - { offsetInCU: 0x42174, offset: 0x42174, size: 0x8, addend: 0x0, symName: __ZN8nlohmann16json_abi_v3_11_310basic_jsonINS0_11ordered_mapENSt3__16vectorENS3_12basic_stringIcNS3_11char_traitsIcEENS3_9allocatorIcEEEEbxydS8_NS0_14adl_serializerENS4_IhNS8_IhEEEEvEC1EDn, symObjAddr: 0xA00, symBinAddr: 0x100001640, symSize: 0xBC }
  - { offsetInCU: 0x42209, offset: 0x42209, size: 0x8, addend: 0x0, symName: __ZN8nlohmann16json_abi_v3_11_310basic_jsonINS0_11ordered_mapENSt3__16vectorENS3_12basic_stringIcNS3_11char_traitsIcEENS3_9allocatorIcEEEEbxydS8_NS0_14adl_serializerENS4_IhNS8_IhEEEEvEC2ESt16initializer_listINS0_6detail8json_refISE_EEEbNSG_7value_tE, symObjAddr: 0x4258, symBinAddr: 0x100004E98, symSize: 0x2EC }
  - { offsetInCU: 0x42A26, offset: 0x42A26, size: 0x8, addend: 0x0, symName: __ZN8nlohmann16json_abi_v3_11_310basic_jsonINS0_11ordered_mapENSt3__16vectorENS3_12basic_stringIcNS3_11char_traitsIcEENS3_9allocatorIcEEEEbxydS8_NS0_14adl_serializerENS4_IhNS8_IhEEEEvEixIKcEERSE_PT_, symObjAddr: 0xABC, symBinAddr: 0x1000016FC, symSize: 0xE0 }
  - { offsetInCU: 0x43051, offset: 0x43051, size: 0x8, addend: 0x0, symName: __ZN8nlohmann16json_abi_v3_11_310basic_jsonINS0_11ordered_mapENSt3__16vectorENS3_12basic_stringIcNS3_11char_traitsIcEENS3_9allocatorIcEEEEbxydS8_NS0_14adl_serializerENS4_IhNS8_IhEEEEvEaSESE_, symObjAddr: 0xB9C, symBinAddr: 0x1000017DC, symSize: 0x16C }
  - { offsetInCU: 0x43126, offset: 0x43126, size: 0x8, addend: 0x0, symName: __ZN8nlohmann16json_abi_v3_11_310basic_jsonINS0_11ordered_mapENSt3__16vectorENS3_12basic_stringIcNS3_11char_traitsIcEENS3_9allocatorIcEEEEbxydS8_NS0_14adl_serializerENS4_IhNS8_IhEEEEvED1Ev, symObjAddr: 0xD08, symBinAddr: 0x100001948, symSize: 0xCC }
  - { offsetInCU: 0x431C1, offset: 0x431C1, size: 0x8, addend: 0x0, symName: __ZNK8nlohmann16json_abi_v3_11_36detail9iter_implINS0_10basic_jsonINS0_11ordered_mapENSt3__16vectorENS5_12basic_stringIcNS5_11char_traitsIcEENS5_9allocatorIcEEEEbxydSA_NS0_14adl_serializerENS6_IhNSA_IhEEEEvEEEeqISH_LDn0EEEbRKT_, symObjAddr: 0x4A48, symBinAddr: 0x100005688, symSize: 0x110 }
  - { offsetInCU: 0x43435, offset: 0x43435, size: 0x8, addend: 0x0, symName: __ZNK8nlohmann16json_abi_v3_11_36detail9iter_implINS0_10basic_jsonINS0_11ordered_mapENSt3__16vectorENS5_12basic_stringIcNS5_11char_traitsIcEENS5_9allocatorIcEEEEbxydSA_NS0_14adl_serializerENS6_IhNSA_IhEEEEvEEEdeEv, symObjAddr: 0xDD4, symBinAddr: 0x100001A14, symSize: 0x174 }
  - { offsetInCU: 0x435FC, offset: 0x435FC, size: 0x8, addend: 0x0, symName: __ZN8nlohmann16json_abi_v3_11_310basic_jsonINS0_11ordered_mapENSt3__16vectorENS3_12basic_stringIcNS3_11char_traitsIcEENS3_9allocatorIcEEEEbxydS8_NS0_14adl_serializerENS4_IhNS8_IhEEEEvEC2ERKSE_, symObjAddr: 0x5148, symBinAddr: 0x100005D88, symSize: 0x23C }
  - { offsetInCU: 0x43AF5, offset: 0x43AF5, size: 0x8, addend: 0x0, symName: __ZN8nlohmann16json_abi_v3_11_310basic_jsonINS0_11ordered_mapENSt3__16vectorENS3_12basic_stringIcNS3_11char_traitsIcEENS3_9allocatorIcEEEEbxydS8_NS0_14adl_serializerENS4_IhNS8_IhEEEEvEC2IRA6_KcA6_cLi0EEEOT_, symObjAddr: 0x5E44, symBinAddr: 0x100006A84, symSize: 0xDC }
  - { offsetInCU: 0x43C3E, offset: 0x43C3E, size: 0x8, addend: 0x0, symName: __ZN8nlohmann16json_abi_v3_11_310basic_jsonINS0_11ordered_mapENSt3__16vectorENS3_12basic_stringIcNS3_11char_traitsIcEENS3_9allocatorIcEEEEbxydS8_NS0_14adl_serializerENS4_IhNS8_IhEEEEvEC2IRA11_KcA11_cLi0EEEOT_, symObjAddr: 0x5FF8, symBinAddr: 0x100006C38, symSize: 0xDC }
  - { offsetInCU: 0x43D87, offset: 0x43D87, size: 0x8, addend: 0x0, symName: __ZN8nlohmann16json_abi_v3_11_310basic_jsonINS0_11ordered_mapENSt3__16vectorENS3_12basic_stringIcNS3_11char_traitsIcEENS3_9allocatorIcEEEEbxydS8_NS0_14adl_serializerENS4_IhNS8_IhEEEEvEC2EOSE_, symObjAddr: 0x3660, symBinAddr: 0x1000042A0, symSize: 0x160 }
  - { offsetInCU: 0x43E02, offset: 0x43E02, size: 0x8, addend: 0x0, symName: __ZN8nlohmann16json_abi_v3_11_310basic_jsonINS0_11ordered_mapENSt3__16vectorENS3_12basic_stringIcNS3_11char_traitsIcEENS3_9allocatorIcEEEEbxydS8_NS0_14adl_serializerENS4_IhNS8_IhEEEEvE9push_backESt16initializer_listINS0_6detail8json_refISE_EEE, symObjAddr: 0xF48, symBinAddr: 0x100001B88, symSize: 0x208 }
  - { offsetInCU: 0x443AA, offset: 0x443AA, size: 0x8, addend: 0x0, symName: __ZN8nlohmann16json_abi_v3_11_310basic_jsonINS0_11ordered_mapENSt3__16vectorENS3_12basic_stringIcNS3_11char_traitsIcEENS3_9allocatorIcEEEEbxydS8_NS0_14adl_serializerENS4_IhNS8_IhEEEEvE9push_backERKSE_, symObjAddr: 0x1150, symBinAddr: 0x100001D90, symSize: 0x154 }
  - { offsetInCU: 0x44837, offset: 0x44837, size: 0x8, addend: 0x0, symName: __ZNSt3__112basic_stringIcNS_11char_traitsIcEENS_9allocatorIcEEE6appendB7v160006IPKcEENS_9enable_ifIXsr27__is_cpp17_forward_iteratorIT_EE5valueERS5_E4typeESA_SA_, symObjAddr: 0x62FC, symBinAddr: 0x100006F3C, symSize: 0x22C }
  - { offsetInCU: 0x44FB7, offset: 0x44FB7, size: 0x8, addend: 0x0, symName: __ZNSt3__14__fs10filesystem4path16replace_filenameB7v160006ERKS2_, symObjAddr: 0x12A4, symBinAddr: 0x100001EE4, symSize: 0x9C }
  - { offsetInCU: 0x451BF, offset: 0x451BF, size: 0x8, addend: 0x0, symName: __ZNSt3__114basic_ofstreamIcNS_11char_traitsIcEEEC1EPKcj, symObjAddr: 0x6528, symBinAddr: 0x100007168, symSize: 0x108 }
  - { offsetInCU: 0x452A2, offset: 0x452A2, size: 0x8, addend: 0x0, symName: __ZNSt3__114basic_ofstreamIcNS_11char_traitsIcEEED1Ev, symObjAddr: 0x1674, symBinAddr: 0x1000022B4, symSize: 0x58 }
  - { offsetInCU: 0x45332, offset: 0x45332, size: 0x8, addend: 0x0, symName: __ZN8nlohmann16json_abi_v3_11_310basic_jsonINS0_11ordered_mapENSt3__16vectorENS3_12basic_stringIcNS3_11char_traitsIcEENS3_9allocatorIcEEEEbxydS8_NS0_14adl_serializerENS4_IhNS8_IhEEEEvEC2ENS0_6detail7value_tE, symObjAddr: 0x2DC4, symBinAddr: 0x100003A04, symSize: 0xC8 }
  - { offsetInCU: 0x4564D, offset: 0x4564D, size: 0x8, addend: 0x0, symName: __ZN8nlohmann16json_abi_v3_11_310basic_jsonINS0_11ordered_mapENSt3__16vectorENS3_12basic_stringIcNS3_11char_traitsIcEENS3_9allocatorIcEEEEbxydS8_NS0_14adl_serializerENS4_IhNS8_IhEEEEvEixESA_, symObjAddr: 0x3A34, symBinAddr: 0x100004674, symSize: 0x144 }
  - { offsetInCU: 0x459B5, offset: 0x459B5, size: 0x8, addend: 0x0, symName: __ZNKSt3__112basic_stringIcNS_11char_traitsIcEENS_9allocatorIcEEE20__throw_length_errorB7v160006Ev, symObjAddr: 0x2C64, symBinAddr: 0x1000038A4, symSize: 0x14 }
  - { offsetInCU: 0x459DE, offset: 0x459DE, size: 0x8, addend: 0x0, symName: __ZNSt3__120__throw_length_errorB7v160006EPKc, symObjAddr: 0x2C78, symBinAddr: 0x1000038B8, symSize: 0x50 }
  - { offsetInCU: 0x45A43, offset: 0x45A43, size: 0x8, addend: 0x0, symName: __ZN8nlohmann16json_abi_v3_11_310basic_jsonINS0_11ordered_mapENSt3__16vectorENS3_12basic_stringIcNS3_11char_traitsIcEENS3_9allocatorIcEEEEbxydS8_NS0_14adl_serializerENS4_IhNS8_IhEEEEvE10json_value7destroyENS0_6detail7value_tE, symObjAddr: 0x2F54, symBinAddr: 0x100003B94, symSize: 0x4A4 }
  - { offsetInCU: 0x46E20, offset: 0x46E20, size: 0x8, addend: 0x0, symName: __ZNSt3__112basic_stringIcNS_11char_traitsIcEENS_9allocatorIcEEEC1B7v160006IDnEEPKc, symObjAddr: 0x2198, symBinAddr: 0x100002DD8, symSize: 0x9C }
  - { offsetInCU: 0x47191, offset: 0x47191, size: 0x8, addend: 0x0, symName: __ZNSt3__114basic_ifstreamIcNS_11char_traitsIcEEEC1ERKNS_12basic_stringIcS2_NS_9allocatorIcEEEEj, symObjAddr: 0x2234, symBinAddr: 0x100002E74, symSize: 0x118 }
  - { offsetInCU: 0x471D7, offset: 0x471D7, size: 0x8, addend: 0x0, symName: __ZN8nlohmann16json_abi_v3_11_36detail16invalid_iterator6createIPNS0_10basic_jsonINS0_11ordered_mapENSt3__16vectorENS6_12basic_stringIcNS6_11char_traitsIcEENS6_9allocatorIcEEEEbxydSB_NS0_14adl_serializerENS7_IhNSB_IhEEEEvEELi0EEES2_iRKSD_T_, symObjAddr: 0x4B58, symBinAddr: 0x100005798, symSize: 0x1B8 }
  - { offsetInCU: 0x47F10, offset: 0x47F10, size: 0x8, addend: 0x0, symName: __ZNK8nlohmann16json_abi_v3_11_36detail9iter_implINS0_10basic_jsonINS0_11ordered_mapENSt3__16vectorENS5_12basic_stringIcNS5_11char_traitsIcEENS5_9allocatorIcEEEEbxydSA_NS0_14adl_serializerENS6_IhNSA_IhEEEEvEEEdeEv.cold.3, symObjAddr: 0x12060, symBinAddr: 0x100012CC0, symSize: 0x28 }
  - { offsetInCU: 0x47F28, offset: 0x47F28, size: 0x8, addend: 0x0, symName: __ZNK8nlohmann16json_abi_v3_11_36detail9iter_implINS0_10basic_jsonINS0_11ordered_mapENSt3__16vectorENS5_12basic_stringIcNS5_11char_traitsIcEENS5_9allocatorIcEEEEbxydSA_NS0_14adl_serializerENS6_IhNSA_IhEEEEvEEEdeEv.cold.1, symObjAddr: 0x12010, symBinAddr: 0x100012C70, symSize: 0x28 }
  - { offsetInCU: 0x47F40, offset: 0x47F40, size: 0x8, addend: 0x0, symName: __ZNK8nlohmann16json_abi_v3_11_36detail9iter_implINS0_10basic_jsonINS0_11ordered_mapENSt3__16vectorENS5_12basic_stringIcNS5_11char_traitsIcEENS5_9allocatorIcEEEEbxydSA_NS0_14adl_serializerENS6_IhNSA_IhEEEEvEEEdeEv.cold.2, symObjAddr: 0x12038, symBinAddr: 0x100012C98, symSize: 0x28 }
  - { offsetInCU: 0x48123, offset: 0x48123, size: 0x8, addend: 0x0, symName: __ZN8nlohmann16json_abi_v3_11_310basic_jsonINS0_11ordered_mapENSt3__16vectorENS3_12basic_stringIcNS3_11char_traitsIcEENS3_9allocatorIcEEEEbxydS8_NS0_14adl_serializerENS4_IhNS8_IhEEEEvE9push_backEOSE_, symObjAddr: 0x58A0, symBinAddr: 0x1000064E0, symSize: 0x140 }
  - { offsetInCU: 0x4857C, offset: 0x4857C, size: 0x8, addend: 0x0, symName: __ZN8nlohmann16json_abi_v3_11_310basic_jsonINS0_11ordered_mapENSt3__16vectorENS3_12basic_stringIcNS3_11char_traitsIcEENS3_9allocatorIcEEEEbxydS8_NS0_14adl_serializerENS4_IhNS8_IhEEEEvE12get_ref_implIRSA_SE_EET_RT0_, symObjAddr: 0x5CE4, symBinAddr: 0x100006924, symSize: 0xDC }
  - { offsetInCU: 0x48799, offset: 0x48799, size: 0x8, addend: 0x0, symName: __ZN8nlohmann16json_abi_v3_11_310basic_jsonINS0_11ordered_mapENSt3__16vectorENS3_12basic_stringIcNS3_11char_traitsIcEENS3_9allocatorIcEEEEbxydS8_NS0_14adl_serializerENS4_IhNS8_IhEEEEvE9push_backERKNS3_4pairIKSA_SE_EE, symObjAddr: 0x5798, symBinAddr: 0x1000063D8, symSize: 0x108 }
  - { offsetInCU: 0x48AE2, offset: 0x48AE2, size: 0x8, addend: 0x0, symName: __ZNSt3__14pairIKNS_12basic_stringIcNS_11char_traitsIcEENS_9allocatorIcEEEEN8nlohmann16json_abi_v3_11_310basic_jsonINS9_11ordered_mapENS_6vectorES6_bxydS4_NS9_14adl_serializerENSC_IhNS4_IhEEEEvEEED1Ev, symObjAddr: 0x3900, symBinAddr: 0x100004540, symSize: 0xDC }
  - { offsetInCU: 0x4906D, offset: 0x4906D, size: 0x8, addend: 0x0, symName: __ZNSt3__16vectorIN8nlohmann16json_abi_v3_11_310basic_jsonINS2_11ordered_mapES0_NS_12basic_stringIcNS_11char_traitsIcEENS_9allocatorIcEEEEbxydS8_NS2_14adl_serializerENS0_IhNS8_IhEEEEvEENS8_ISE_EEE21__push_back_slow_pathIRKSE_EEvOT_, symObjAddr: 0x61AC, symBinAddr: 0x100006DEC, symSize: 0x150 }
  - { offsetInCU: 0x496AD, offset: 0x496AD, size: 0x8, addend: 0x0, symName: __ZNK8nlohmann16json_abi_v3_11_310basic_jsonINS0_11ordered_mapENSt3__16vectorENS3_12basic_stringIcNS3_11char_traitsIcEENS3_9allocatorIcEEEEbxydS8_NS0_14adl_serializerENS4_IhNS8_IhEEEEvE9type_nameEv, symObjAddr: 0x2934, symBinAddr: 0x100003574, symSize: 0x28 }
  - { offsetInCU: 0x496DA, offset: 0x496DA, size: 0x8, addend: 0x0, symName: __ZN8nlohmann16json_abi_v3_11_36detail10type_error6createIPNS0_10basic_jsonINS0_11ordered_mapENSt3__16vectorENS6_12basic_stringIcNS6_11char_traitsIcEENS6_9allocatorIcEEEEbxydSB_NS0_14adl_serializerENS7_IhNSB_IhEEEEvEELi0EEES2_iRKSD_T_, symObjAddr: 0x3CB4, symBinAddr: 0x1000048F4, symSize: 0x1C0 }
  - { offsetInCU: 0x4ABB5, offset: 0x4ABB5, size: 0x8, addend: 0x0, symName: __ZN8nlohmann16json_abi_v3_11_36detail10serializerINS0_10basic_jsonINS0_11ordered_mapENSt3__16vectorENS5_12basic_stringIcNS5_11char_traitsIcEENS5_9allocatorIcEEEEbxydSA_NS0_14adl_serializerENS6_IhNSA_IhEEEEvEEE4dumpERKSG_bbjj, symObjAddr: 0x66D0, symBinAddr: 0x100007310, symSize: 0xCD8 }
  - { offsetInCU: 0x4C747, offset: 0x4C747, size: 0x8, addend: 0x0, symName: __ZN8nlohmann16json_abi_v3_11_36detail10serializerINS0_10basic_jsonINS0_11ordered_mapENSt3__16vectorENS5_12basic_stringIcNS5_11char_traitsIcEENS5_9allocatorIcEEEEbxydSA_NS0_14adl_serializerENS6_IhNSA_IhEEEEvEEED1Ev, symObjAddr: 0x73A8, symBinAddr: 0x100007FE8, symSize: 0x6C }
  - { offsetInCU: 0x4C752, offset: 0x4C752, size: 0x8, addend: 0x0, symName: __ZN8nlohmann16json_abi_v3_11_36detail10serializerINS0_10basic_jsonINS0_11ordered_mapENSt3__16vectorENS5_12basic_stringIcNS5_11char_traitsIcEENS5_9allocatorIcEEEEbxydSA_NS0_14adl_serializerENS6_IhNSA_IhEEEEvEEED1Ev, symObjAddr: 0x73A8, symBinAddr: 0x100007FE8, symSize: 0x6C }
  - { offsetInCU: 0x4C93E, offset: 0x4C93E, size: 0x8, addend: 0x0, symName: __ZN8nlohmann16json_abi_v3_11_3lsERNSt3__113basic_ostreamIcNS1_11char_traitsIcEEEERKNS0_10basic_jsonINS0_11ordered_mapENS1_6vectorENS1_12basic_stringIcS4_NS1_9allocatorIcEEEEbxydSB_NS0_14adl_serializerENS9_IhNSB_IhEEEEvEE.cold.1, symObjAddr: 0x12088, symBinAddr: 0x100012CE8, symSize: 0x30 }
  - { offsetInCU: 0x4C9D9, offset: 0x4C9D9, size: 0x8, addend: 0x0, symName: __ZNSt3__110shared_ptrIN8nlohmann16json_abi_v3_11_36detail23output_adapter_protocolIcEEED1B7v160006Ev, symObjAddr: 0x6630, symBinAddr: 0x100007270, symSize: 0x50 }
  - { offsetInCU: 0x4CA7F, offset: 0x4CA7F, size: 0x8, addend: 0x0, symName: __ZN8nlohmann16json_abi_v3_11_36detail14output_adapterIcNSt3__112basic_stringIcNS3_11char_traitsIcEENS3_9allocatorIcEEEEED1Ev, symObjAddr: 0x6680, symBinAddr: 0x1000072C0, symSize: 0x50 }
  - { offsetInCU: 0x4CC58, offset: 0x4CC58, size: 0x8, addend: 0x0, symName: __Z28OutputRemainingEncounterDataRN8nlohmann16json_abi_v3_11_310basic_jsonINS0_11ordered_mapENSt3__16vectorENS3_12basic_stringIcNS3_11char_traitsIcEENS3_9allocatorIcEEEEbxydS8_NS0_14adl_serializerENS4_IhNS8_IhEEEEvEERKNS3_3mapISA_SA_NS3_4lessISA_EENS8_INS3_4pairIKSA_SA_EEEEEERSK_, symObjAddr: 0x16CC, symBinAddr: 0x10000230C, symSize: 0x634 }
  - { offsetInCU: 0x4E5E1, offset: 0x4E5E1, size: 0x8, addend: 0x0, symName: __ZNKSt3__16__treeINS_12__value_typeINS_12basic_stringIcNS_11char_traitsIcEENS_9allocatorIcEEEES7_EENS_19__map_value_compareIS7_S8_NS_4lessIS7_EELb1EEENS5_IS8_EEE4findIS7_EENS_21__tree_const_iteratorIS8_PNS_11__tree_nodeIS8_PvEElEERKT_, symObjAddr: 0x8980, symBinAddr: 0x1000095C0, symSize: 0x114 }
  - { offsetInCU: 0x4E914, offset: 0x4E914, size: 0x8, addend: 0x0, symName: __Z28OutputRemainingEncounterDataRN8nlohmann16json_abi_v3_11_310basic_jsonINS0_11ordered_mapENSt3__16vectorENS3_12basic_stringIcNS3_11char_traitsIcEENS3_9allocatorIcEEEEbxydS8_NS0_14adl_serializerENS4_IhNS8_IhEEEEvEERKNS3_3mapISA_SA_NS3_4lessISA_EENS8_INS3_4pairIKSA_SA_EEEEEERSK_.cold.1, symObjAddr: 0x120B8, symBinAddr: 0x100012D18, symSize: 0x28 }
  - { offsetInCU: 0x4F007, offset: 0x4F007, size: 0x8, addend: 0x0, symName: _main, symObjAddr: 0x1D00, symBinAddr: 0x100002940, symSize: 0x498 }
  - { offsetInCU: 0x50897, offset: 0x50897, size: 0x8, addend: 0x0, symName: __ZNSt3__16vectorIKNS_12basic_stringIcNS_11char_traitsIcEENS_9allocatorIcEEEENS4_IS7_EEE21__push_back_slow_pathIS7_EEvOT_, symObjAddr: 0x8A94, symBinAddr: 0x1000096D4, symSize: 0x1D8 }
  - { offsetInCU: 0x51084, offset: 0x51084, size: 0x8, addend: 0x0, symName: __ZNSt3__114basic_ifstreamIcNS_11char_traitsIcEEEC1ERKNS_12basic_stringIcS2_NS_9allocatorIcEEEEj, symObjAddr: 0x2234, symBinAddr: 0x100002E74, symSize: 0x118 }
  - { offsetInCU: 0x51206, offset: 0x51206, size: 0x8, addend: 0x0, symName: __ZNSt3__16__treeINS_12__value_typeINS_12basic_stringIcNS_11char_traitsIcEENS_9allocatorIcEEEES7_EENS_19__map_value_compareIS7_S8_NS_4lessIS7_EELb1EEENS5_IS8_EEE21__emplace_unique_implIJNS_4pairIN8nlohmann16json_abi_v3_11_310basic_jsonINSI_11ordered_mapENS_6vectorES7_bxydS5_NSI_14adl_serializerENSL_IhNS5_IhEEEEvEES7_EEEEENSG_INS_15__tree_iteratorIS8_PNS_11__tree_nodeIS8_PvEElEEbEEDpOT_, symObjAddr: 0x11BB4, symBinAddr: 0x1000127F4, symSize: 0x150 }
  - { offsetInCU: 0x51B4A, offset: 0x51B4A, size: 0x8, addend: 0x0, symName: __ZNSt3__16__treeINS_12__value_typeINS_12basic_stringIcNS_11char_traitsIcEENS_9allocatorIcEEEES7_EENS_19__map_value_compareIS7_S8_NS_4lessIS7_EELb1EEENS5_IS8_EEE7destroyEPNS_11__tree_nodeIS8_PvEE, symObjAddr: 0x11B48, symBinAddr: 0x100012788, symSize: 0x6C }
  - { offsetInCU: 0x51EEF, offset: 0x51EEF, size: 0x8, addend: 0x0, symName: __ZNSt3__14pairIN8nlohmann16json_abi_v3_11_310basic_jsonINS2_11ordered_mapENS_6vectorENS_12basic_stringIcNS_11char_traitsIcEENS_9allocatorIcEEEEbxydS9_NS2_14adl_serializerENS5_IhNS9_IhEEEEvEESB_ED1Ev, symObjAddr: 0x2508, symBinAddr: 0x100003148, symSize: 0x30 }
  - { offsetInCU: 0x52066, offset: 0x52066, size: 0x8, addend: 0x0, symName: __ZNSt3__114basic_ifstreamIcNS_11char_traitsIcEEED1Ev, symObjAddr: 0x2538, symBinAddr: 0x100003178, symSize: 0x58 }
  - { offsetInCU: 0x520AE, offset: 0x520AE, size: 0x8, addend: 0x0, symName: __ZNSt3__16vectorIKNS_12basic_stringIcNS_11char_traitsIcEENS_9allocatorIcEEEENS4_IS7_EEED1B7v160006Ev, symObjAddr: 0x2590, symBinAddr: 0x1000031D0, symSize: 0x74 }
  - { offsetInCU: 0x527F2, offset: 0x527F2, size: 0x8, addend: 0x0, symName: __ZN8nlohmann16json_abi_v3_11_36detail6parserINS0_10basic_jsonINS0_11ordered_mapENSt3__16vectorENS5_12basic_stringIcNS5_11char_traitsIcEENS5_9allocatorIcEEEEbxydSA_NS0_14adl_serializerENS6_IhNSA_IhEEEEvEENS1_20input_stream_adapterEEC2EOSH_NS5_8functionIFbiNS1_13parse_event_tERSG_EEEbb, symObjAddr: 0x959C, symBinAddr: 0x10000A1DC, symSize: 0x164 }
  - { offsetInCU: 0x52A6E, offset: 0x52A6E, size: 0x8, addend: 0x0, symName: __ZN8nlohmann16json_abi_v3_11_36detail6parserINS0_10basic_jsonINS0_11ordered_mapENSt3__16vectorENS5_12basic_stringIcNS5_11char_traitsIcEENS5_9allocatorIcEEEEbxydSA_NS0_14adl_serializerENS6_IhNSA_IhEEEEvEENS1_20input_stream_adapterEE5parseEbRSG_, symObjAddr: 0x8CE4, symBinAddr: 0x100009924, symSize: 0x7E4 }
  - { offsetInCU: 0x54A8C, offset: 0x54A8C, size: 0x8, addend: 0x0, symName: __ZN8nlohmann16json_abi_v3_11_36detail6parserINS0_10basic_jsonINS0_11ordered_mapENSt3__16vectorENS5_12basic_stringIcNS5_11char_traitsIcEENS5_9allocatorIcEEEEbxydSA_NS0_14adl_serializerENS6_IhNSA_IhEEEEvEENS1_20input_stream_adapterEED1Ev, symObjAddr: 0x94C8, symBinAddr: 0x10000A108, symSize: 0x90 }
  - { offsetInCU: 0x54E67, offset: 0x54E67, size: 0x8, addend: 0x0, symName: __ZN8nlohmann16json_abi_v3_11_36detail20input_stream_adapterD1Ev, symObjAddr: 0x9558, symBinAddr: 0x10000A198, symSize: 0x44 }
  - { offsetInCU: 0x54F41, offset: 0x54F41, size: 0x8, addend: 0x0, symName: __ZN8nlohmann16json_abi_v3_11_36detail10type_error6createIPKNS0_10basic_jsonINS0_11ordered_mapENSt3__16vectorENS6_12basic_stringIcNS6_11char_traitsIcEENS6_9allocatorIcEEEEbxydSB_NS0_14adl_serializerENS7_IhNSB_IhEEEEvEELi0EEES2_iRKSD_T_, symObjAddr: 0x26F0, symBinAddr: 0x100003330, symSize: 0x1C0 }
  - { offsetInCU: 0x55E02, offset: 0x55E02, size: 0x8, addend: 0x0, symName: __ZN8nlohmann16json_abi_v3_11_36detail10type_errorD1Ev, symObjAddr: 0x295C, symBinAddr: 0x10000359C, symSize: 0x34 }
  - { offsetInCU: 0x55EB7, offset: 0x55EB7, size: 0x8, addend: 0x0, symName: __ZN8nlohmann16json_abi_v3_11_36detail10type_errorD0Ev, symObjAddr: 0x2BB8, symBinAddr: 0x1000037F8, symSize: 0x38 }
  - { offsetInCU: 0x55F3C, offset: 0x55F3C, size: 0x8, addend: 0x0, symName: __ZNK8nlohmann16json_abi_v3_11_36detail9exception4whatEv, symObjAddr: 0x2BF0, symBinAddr: 0x100003830, symSize: 0x8 }
  - { offsetInCU: 0x55F63, offset: 0x55F63, size: 0x8, addend: 0x0, symName: __ZN8nlohmann16json_abi_v3_11_36detail9exceptionD1Ev, symObjAddr: 0x2BF8, symBinAddr: 0x100003838, symSize: 0x34 }
  - { offsetInCU: 0x55FC1, offset: 0x55FC1, size: 0x8, addend: 0x0, symName: __ZN8nlohmann16json_abi_v3_11_36detail9exceptionD0Ev, symObjAddr: 0x2C2C, symBinAddr: 0x10000386C, symSize: 0x38 }
  - { offsetInCU: 0x56029, offset: 0x56029, size: 0x8, addend: 0x0, symName: __ZNSt12length_errorC1B7v160006EPKc, symObjAddr: 0x2CC8, symBinAddr: 0x100003908, symSize: 0x24 }
  - { offsetInCU: 0x560B3, offset: 0x560B3, size: 0x8, addend: 0x0, symName: __ZNK8nlohmann16json_abi_v3_11_310basic_jsonINS0_11ordered_mapENSt3__16vectorENS3_12basic_stringIcNS3_11char_traitsIcEENS3_9allocatorIcEEEEbxydS8_NS0_14adl_serializerENS4_IhNS8_IhEEEEvE16assert_invariantEb, symObjAddr: 0x2D14, symBinAddr: 0x100003954, symSize: 0xB0 }
  - { offsetInCU: 0x5612A, offset: 0x5612A, size: 0x8, addend: 0x0, symName: __ZN8nlohmann16json_abi_v3_11_310basic_jsonINS0_11ordered_mapENSt3__16vectorENS3_12basic_stringIcNS3_11char_traitsIcEENS3_9allocatorIcEEEEbxydS8_NS0_14adl_serializerENS4_IhNS8_IhEEEEvE10json_valueC2ENS0_6detail7value_tE, symObjAddr: 0x2E8C, symBinAddr: 0x100003ACC, symSize: 0x9C }
  - { offsetInCU: 0x56A00, offset: 0x56A00, size: 0x8, addend: 0x0, symName: __ZN8nlohmann16json_abi_v3_11_310basic_jsonINS0_11ordered_mapENSt3__16vectorENS3_12basic_stringIcNS3_11char_traitsIcEENS3_9allocatorIcEEEEbxydS8_NS0_14adl_serializerENS4_IhNS8_IhEEEEvE4dataD1Ev, symObjAddr: 0x2F28, symBinAddr: 0x100003B68, symSize: 0x2C }
  - { offsetInCU: 0x57149, offset: 0x57149, size: 0x8, addend: 0x0, symName: __ZNSt3__16vectorIN8nlohmann16json_abi_v3_11_310basic_jsonINS2_11ordered_mapES0_NS_12basic_stringIcNS_11char_traitsIcEENS_9allocatorIcEEEEbxydS8_NS2_14adl_serializerENS0_IhNS8_IhEEEEvEENS8_ISE_EEE7reserveEm, symObjAddr: 0x33F8, symBinAddr: 0x100004038, symSize: 0xE0 }
  - { offsetInCU: 0x5758A, offset: 0x5758A, size: 0x8, addend: 0x0, symName: __ZNKSt3__16vectorIN8nlohmann16json_abi_v3_11_310basic_jsonINS2_11ordered_mapES0_NS_12basic_stringIcNS_11char_traitsIcEENS_9allocatorIcEEEEbxydS8_NS2_14adl_serializerENS0_IhNS8_IhEEEEvEENS8_ISE_EEE20__throw_length_errorB7v160006Ev, symObjAddr: 0x34D8, symBinAddr: 0x100004118, symSize: 0x14 }
  - { offsetInCU: 0x5759C, offset: 0x5759C, size: 0x8, addend: 0x0, symName: __ZNSt3__16vectorIN8nlohmann16json_abi_v3_11_310basic_jsonINS2_11ordered_mapES0_NS_12basic_stringIcNS_11char_traitsIcEENS_9allocatorIcEEEEbxydS8_NS2_14adl_serializerENS0_IhNS8_IhEEEEvEENS8_ISE_EEE21__push_back_slow_pathISE_EEvOT_, symObjAddr: 0x353C, symBinAddr: 0x10000417C, symSize: 0x124 }
  - { offsetInCU: 0x57AD9, offset: 0x57AD9, size: 0x8, addend: 0x0, symName: __ZN8nlohmann16json_abi_v3_11_310basic_jsonINS0_11ordered_mapENSt3__16vectorENS3_12basic_stringIcNS3_11char_traitsIcEENS3_9allocatorIcEEEEbxydS8_NS0_14adl_serializerENS4_IhNS8_IhEEEEvEC2EOSE_, symObjAddr: 0x3660, symBinAddr: 0x1000042A0, symSize: 0x160 }
  - { offsetInCU: 0x57AED, offset: 0x57AED, size: 0x8, addend: 0x0, symName: __ZNSt3__16vectorINS_4pairIKNS_12basic_stringIcNS_11char_traitsIcEENS_9allocatorIcEEEEN8nlohmann16json_abi_v3_11_310basic_jsonINSA_11ordered_mapES0_S7_bxydS5_NSA_14adl_serializerENS0_IhNS5_IhEEEEvEEEENS5_ISH_EEE22__base_destruct_at_endB7v160006EPSH_, symObjAddr: 0x37C0, symBinAddr: 0x100004400, symSize: 0x140 }
  - { offsetInCU: 0x57D40, offset: 0x57D40, size: 0x8, addend: 0x0, symName: __ZNSt3__16vectorIN8nlohmann16json_abi_v3_11_310basic_jsonINS2_11ordered_mapES0_NS_12basic_stringIcNS_11char_traitsIcEENS_9allocatorIcEEEEbxydS8_NS2_14adl_serializerENS0_IhNS8_IhEEEEvEENS8_ISE_EEED2B7v160006Ev, symObjAddr: 0x39DC, symBinAddr: 0x10000461C, symSize: 0x58 }
  - { offsetInCU: 0x58064, offset: 0x58064, size: 0x8, addend: 0x0, symName: __ZNKSt3__16vectorIN8nlohmann16json_abi_v3_11_310basic_jsonINS2_11ordered_mapES0_NS_12basic_stringIcNS_11char_traitsIcEENS_9allocatorIcEEEEbxydS8_NS2_14adl_serializerENS0_IhNS8_IhEEEEvEENS8_ISE_EEE20__throw_length_errorB7v160006Ev, symObjAddr: 0x34D8, symBinAddr: 0x100004118, symSize: 0x14 }
  - { offsetInCU: 0x5808D, offset: 0x5808D, size: 0x8, addend: 0x0, symName: __ZNSt3__114__split_bufferIN8nlohmann16json_abi_v3_11_310basic_jsonINS2_11ordered_mapENS_6vectorENS_12basic_stringIcNS_11char_traitsIcEENS_9allocatorIcEEEEbxydS9_NS2_14adl_serializerENS5_IhNS9_IhEEEEvEERNS9_ISF_EEED1Ev, symObjAddr: 0x34EC, symBinAddr: 0x10000412C, symSize: 0x50 }
  - { offsetInCU: 0x58098, offset: 0x58098, size: 0x8, addend: 0x0, symName: __ZNSt3__114__split_bufferIN8nlohmann16json_abi_v3_11_310basic_jsonINS2_11ordered_mapENS_6vectorENS_12basic_stringIcNS_11char_traitsIcEENS_9allocatorIcEEEEbxydS9_NS2_14adl_serializerENS5_IhNS9_IhEEEEvEERNS9_ISF_EEED1Ev, symObjAddr: 0x34EC, symBinAddr: 0x10000412C, symSize: 0x50 }
  - { offsetInCU: 0x58319, offset: 0x58319, size: 0x8, addend: 0x0, symName: __ZN8nlohmann16json_abi_v3_11_311ordered_mapINSt3__112basic_stringIcNS2_11char_traitsIcEENS2_9allocatorIcEEEENS0_10basic_jsonIS1_NS2_6vectorES8_bxydS6_NS0_14adl_serializerENSA_IhNS6_IhEEEEvEENS2_4lessIvEENS6_INS2_4pairIKS8_SE_EEEEE7emplaceERSI_OSE_, symObjAddr: 0x3B78, symBinAddr: 0x1000047B8, symSize: 0x13C }
  - { offsetInCU: 0x589A1, offset: 0x589A1, size: 0x8, addend: 0x0, symName: __ZNSt3__16vectorINS_4pairIKNS_12basic_stringIcNS_11char_traitsIcEENS_9allocatorIcEEEEN8nlohmann16json_abi_v3_11_310basic_jsonINSA_11ordered_mapES0_S7_bxydS5_NSA_14adl_serializerENS0_IhNS5_IhEEEEvEEEENS5_ISH_EEE24__emplace_back_slow_pathIJRS8_SG_EEEvDpOT_, symObjAddr: 0x3EF8, symBinAddr: 0x100004B38, symSize: 0x1A4 }
  - { offsetInCU: 0x59374, offset: 0x59374, size: 0x8, addend: 0x0, symName: __ZNKSt3__16vectorINS_4pairIKNS_12basic_stringIcNS_11char_traitsIcEENS_9allocatorIcEEEEN8nlohmann16json_abi_v3_11_310basic_jsonINSA_11ordered_mapES0_S7_bxydS5_NSA_14adl_serializerENS0_IhNS5_IhEEEEvEEEENS5_ISH_EEE20__throw_length_errorB7v160006Ev, symObjAddr: 0x4108, symBinAddr: 0x100004D48, symSize: 0x14 }
  - { offsetInCU: 0x5939D, offset: 0x5939D, size: 0x8, addend: 0x0, symName: __ZNSt3__142__uninitialized_allocator_move_if_noexceptB7v160006INS_9allocatorINS_4pairIKNS_12basic_stringIcNS_11char_traitsIcEENS1_IcEEEEN8nlohmann16json_abi_v3_11_310basic_jsonINSA_11ordered_mapENS_6vectorES7_bxydS1_NSA_14adl_serializerENSD_IhNS1_IhEEEEvEEEEEENS_16reverse_iteratorIPSI_EESM_SM_EET2_RT_T0_T1_SN_, symObjAddr: 0x411C, symBinAddr: 0x100004D5C, symSize: 0xD4 }
  - { offsetInCU: 0x593A8, offset: 0x593A8, size: 0x8, addend: 0x0, symName: __ZNSt3__114__split_bufferINS_4pairIKNS_12basic_stringIcNS_11char_traitsIcEENS_9allocatorIcEEEEN8nlohmann16json_abi_v3_11_310basic_jsonINSA_11ordered_mapENS_6vectorES7_bxydS5_NSA_14adl_serializerENSD_IhNS5_IhEEEEvEEEERNS5_ISI_EEED1Ev, symObjAddr: 0x409C, symBinAddr: 0x100004CDC, symSize: 0x6C }
  - { offsetInCU: 0x5981A, offset: 0x5981A, size: 0x8, addend: 0x0, symName: __ZNSt3__128__exception_guard_exceptionsINS_29_AllocatorDestroyRangeReverseINS_9allocatorINS_4pairIKNS_12basic_stringIcNS_11char_traitsIcEENS2_IcEEEEN8nlohmann16json_abi_v3_11_310basic_jsonINSB_11ordered_mapENS_6vectorES8_bxydS2_NSB_14adl_serializerENSE_IhNS2_IhEEEEvEEEEEENS_16reverse_iteratorIPSJ_EEEEED1B7v160006Ev, symObjAddr: 0x41F0, symBinAddr: 0x100004E30, symSize: 0x68 }
  - { offsetInCU: 0x59DD3, offset: 0x59DD3, size: 0x8, addend: 0x0, symName: __ZNK8nlohmann16json_abi_v3_11_310basic_jsonINS0_11ordered_mapENSt3__16vectorENS3_12basic_stringIcNS3_11char_traitsIcEENS3_9allocatorIcEEEEbxydS8_NS0_14adl_serializerENS4_IhNS8_IhEEEEvEixEm, symObjAddr: 0x4704, symBinAddr: 0x100005344, symSize: 0xE0 }
  - { offsetInCU: 0x59FC6, offset: 0x59FC6, size: 0x8, addend: 0x0, symName: __ZNSt3__16vectorIN8nlohmann16json_abi_v3_11_310basic_jsonINS2_11ordered_mapES0_NS_12basic_stringIcNS_11char_traitsIcEENS_9allocatorIcEEEEbxydS8_NS2_14adl_serializerENS0_IhNS8_IhEEEEvEENS8_ISE_EEEC1IPKNS2_6detail8json_refISE_EELi0EEET_SN_, symObjAddr: 0x4868, symBinAddr: 0x1000054A8, symSize: 0xAC }
  - { offsetInCU: 0x5A207, offset: 0x5A207, size: 0x8, addend: 0x0, symName: __ZN8nlohmann16json_abi_v3_11_36detail10type_error6createIDnLi0EEES2_iRKNSt3__112basic_stringIcNS4_11char_traitsIcEENS4_9allocatorIcEEEET_, symObjAddr: 0x4544, symBinAddr: 0x100005184, symSize: 0x1C0 }
  - { offsetInCU: 0x5B07A, offset: 0x5B07A, size: 0x8, addend: 0x0, symName: __ZNSt3__16vectorIN8nlohmann16json_abi_v3_11_310basic_jsonINS2_11ordered_mapES0_NS_12basic_stringIcNS_11char_traitsIcEENS_9allocatorIcEEEEbxydS8_NS2_14adl_serializerENS0_IhNS8_IhEEEEvEENS8_ISE_EEE18__construct_at_endIPKNS2_6detail8json_refISE_EELi0EEEvT_SN_m, symObjAddr: 0x4914, symBinAddr: 0x100005554, symSize: 0xC4 }
  - { offsetInCU: 0x5B3CE, offset: 0x5B3CE, size: 0x8, addend: 0x0, symName: __ZNSt3__16vectorIN8nlohmann16json_abi_v3_11_310basic_jsonINS2_11ordered_mapES0_NS_12basic_stringIcNS_11char_traitsIcEENS_9allocatorIcEEEEbxydS8_NS2_14adl_serializerENS0_IhNS8_IhEEEEvEENS8_ISE_EEEC1IPKNS2_6detail8json_refISE_EELi0EEET_SN_.cold.1, symObjAddr: 0x120E0, symBinAddr: 0x100012D40, symSize: 0x58 }
  - { offsetInCU: 0x5B6B8, offset: 0x5B6B8, size: 0x8, addend: 0x0, symName: __ZNSt3__128__exception_guard_exceptionsINS_6vectorIN8nlohmann16json_abi_v3_11_310basic_jsonINS3_11ordered_mapES1_NS_12basic_stringIcNS_11char_traitsIcEENS_9allocatorIcEEEEbxydS9_NS3_14adl_serializerENS1_IhNS9_IhEEEEvEENS9_ISF_EEE16__destroy_vectorEED1B7v160006Ev, symObjAddr: 0x49D8, symBinAddr: 0x100005618, symSize: 0x70 }
  - { offsetInCU: 0x5B855, offset: 0x5B855, size: 0x8, addend: 0x0, symName: __ZNK8nlohmann16json_abi_v3_11_36detail9iter_implINS0_10basic_jsonINS0_11ordered_mapENSt3__16vectorENS5_12basic_stringIcNS5_11char_traitsIcEENS5_9allocatorIcEEEEbxydSA_NS0_14adl_serializerENS6_IhNSA_IhEEEEvEEEeqISH_LDn0EEEbRKT_.cold.1, symObjAddr: 0x12138, symBinAddr: 0x100012D98, symSize: 0x28 }
  - { offsetInCU: 0x5B8F4, offset: 0x5B8F4, size: 0x8, addend: 0x0, symName: __ZN8nlohmann16json_abi_v3_11_36detail16invalid_iteratorD1Ev, symObjAddr: 0x4D10, symBinAddr: 0x100005950, symSize: 0x34 }
  - { offsetInCU: 0x5B971, offset: 0x5B971, size: 0x8, addend: 0x0, symName: __ZN8nlohmann16json_abi_v3_11_36detail16invalid_iteratorD0Ev, symObjAddr: 0x4D44, symBinAddr: 0x100005984, symSize: 0x38 }
  - { offsetInCU: 0x5BCF0, offset: 0x5BCF0, size: 0x8, addend: 0x0, symName: __ZN8nlohmann16json_abi_v3_11_310basic_jsonINS0_11ordered_mapENSt3__16vectorENS3_12basic_stringIcNS3_11char_traitsIcEENS3_9allocatorIcEEEEbxydS8_NS0_14adl_serializerENS4_IhNS8_IhEEEEvE18compares_unorderedERKSE_SG_b, symObjAddr: 0x50D8, symBinAddr: 0x100005D18, symSize: 0x70 }
  - { offsetInCU: 0x5BD3A, offset: 0x5BD3A, size: 0x8, addend: 0x0, symName: __ZN8nlohmann16json_abi_v3_11_310basic_jsonINS0_11ordered_mapENSt3__16vectorENS3_12basic_stringIcNS3_11char_traitsIcEENS3_9allocatorIcEEEEbxydS8_NS0_14adl_serializerENS4_IhNS8_IhEEEEvE18compares_unorderedERKSE_SG_b, symObjAddr: 0x50D8, symBinAddr: 0x100005D18, symSize: 0x70 }
  - { offsetInCU: 0x5C3BD, offset: 0x5C3BD, size: 0x8, addend: 0x0, symName: __ZN8nlohmann16json_abi_v3_11_310basic_jsonINS0_11ordered_mapENSt3__16vectorENS3_12basic_stringIcNS3_11char_traitsIcEENS3_9allocatorIcEEEEbxydS8_NS0_14adl_serializerENS4_IhNS8_IhEEEEvE6createINS0_27byte_container_with_subtypeISD_EEJRKSH_EEEPT_DpOT0_, symObjAddr: 0x5670, symBinAddr: 0x1000062B0, symSize: 0x114 }
  - { offsetInCU: 0x5C9B8, offset: 0x5C9B8, size: 0x8, addend: 0x0, symName: __ZNSt3__16vectorINS_4pairIKNS_12basic_stringIcNS_11char_traitsIcEENS_9allocatorIcEEEEN8nlohmann16json_abi_v3_11_310basic_jsonINSA_11ordered_mapES0_S7_bxydS5_NSA_14adl_serializerENS0_IhNS5_IhEEEEvEEEENS5_ISH_EEEC2ERKSJ_, symObjAddr: 0x5384, symBinAddr: 0x100005FC4, symSize: 0x148 }
  - { offsetInCU: 0x5CE71, offset: 0x5CE71, size: 0x8, addend: 0x0, symName: __ZNSt3__16vectorIN8nlohmann16json_abi_v3_11_310basic_jsonINS2_11ordered_mapES0_NS_12basic_stringIcNS_11char_traitsIcEENS_9allocatorIcEEEEbxydS8_NS2_14adl_serializerENS0_IhNS8_IhEEEEvEENS8_ISE_EEEC2ERKSG_, symObjAddr: 0x5580, symBinAddr: 0x1000061C0, symSize: 0xF0 }
  - { offsetInCU: 0x5D414, offset: 0x5D414, size: 0x8, addend: 0x0, symName: __ZNSt3__128__exception_guard_exceptionsINS_29_AllocatorDestroyRangeReverseINS_9allocatorINS_4pairIKNS_12basic_stringIcNS_11char_traitsIcEENS2_IcEEEEN8nlohmann16json_abi_v3_11_310basic_jsonINSB_11ordered_mapENS_6vectorES8_bxydS2_NSB_14adl_serializerENSE_IhNS2_IhEEEEvEEEEEEPSJ_EEED1B7v160006Ev, symObjAddr: 0x5510, symBinAddr: 0x100006150, symSize: 0x70 }
  - { offsetInCU: 0x5D692, offset: 0x5D692, size: 0x8, addend: 0x0, symName: __ZNSt3__128__exception_guard_exceptionsINS_6vectorINS_4pairIKNS_12basic_stringIcNS_11char_traitsIcEENS_9allocatorIcEEEEN8nlohmann16json_abi_v3_11_310basic_jsonINSB_11ordered_mapES1_S8_bxydS6_NSB_14adl_serializerENS1_IhNS6_IhEEEEvEEEENS6_ISI_EEE16__destroy_vectorEED1B7v160006Ev, symObjAddr: 0x54CC, symBinAddr: 0x10000610C, symSize: 0x44 }
  - { offsetInCU: 0x5DDCA, offset: 0x5DDCA, size: 0x8, addend: 0x0, symName: __ZNKSt3__16vectorIhNS_9allocatorIhEEE20__throw_length_errorB7v160006Ev, symObjAddr: 0x5784, symBinAddr: 0x1000063C4, symSize: 0x14 }
  - { offsetInCU: 0x5DDF3, offset: 0x5DDF3, size: 0x8, addend: 0x0, symName: __ZN8nlohmann16json_abi_v3_11_310basic_jsonINS0_11ordered_mapENSt3__16vectorENS3_12basic_stringIcNS3_11char_traitsIcEENS3_9allocatorIcEEEEbxydS8_NS0_14adl_serializerENS4_IhNS8_IhEEEEvE9push_backERKNS3_4pairIKSA_SE_EE, symObjAddr: 0x5798, symBinAddr: 0x1000063D8, symSize: 0x108 }
  - { offsetInCU: 0x5DDFE, offset: 0x5DDFE, size: 0x8, addend: 0x0, symName: __ZN8nlohmann16json_abi_v3_11_311ordered_mapINSt3__112basic_stringIcNS2_11char_traitsIcEENS2_9allocatorIcEEEENS0_10basic_jsonIS1_NS2_6vectorES8_bxydS6_NS0_14adl_serializerENSA_IhNS6_IhEEEEvEENS2_4lessIvEENS6_INS2_4pairIKS8_SE_EEEEE6insertERKSJ_, symObjAddr: 0x59E0, symBinAddr: 0x100006620, symSize: 0x14C }
  - { offsetInCU: 0x5E2F7, offset: 0x5E2F7, size: 0x8, addend: 0x0, symName: __ZNSt3__16vectorINS_4pairIKNS_12basic_stringIcNS_11char_traitsIcEENS_9allocatorIcEEEEN8nlohmann16json_abi_v3_11_310basic_jsonINSA_11ordered_mapES0_S7_bxydS5_NSA_14adl_serializerENS0_IhNS5_IhEEEEvEEEENS5_ISH_EEE21__push_back_slow_pathIRKSH_EEvOT_, symObjAddr: 0x5B2C, symBinAddr: 0x10000676C, symSize: 0x1B8 }
  - { offsetInCU: 0x5EB7B, offset: 0x5EB7B, size: 0x8, addend: 0x0, symName: __ZN8nlohmann16json_abi_v3_11_36detail20external_constructorILNS1_7value_tE3EE9constructINS0_10basic_jsonINS0_11ordered_mapENSt3__16vectorENS8_12basic_stringIcNS8_11char_traitsIcEENS8_9allocatorIcEEEEbxydSD_NS0_14adl_serializerENS9_IhNSD_IhEEEEvEEA6_cLi0EEEvRT_RKT0_, symObjAddr: 0x5F20, symBinAddr: 0x100006B60, symSize: 0xD8 }
  - { offsetInCU: 0x5F421, offset: 0x5F421, size: 0x8, addend: 0x0, symName: __ZN8nlohmann16json_abi_v3_11_36detail20external_constructorILNS1_7value_tE3EE9constructINS0_10basic_jsonINS0_11ordered_mapENSt3__16vectorENS8_12basic_stringIcNS8_11char_traitsIcEENS8_9allocatorIcEEEEbxydSD_NS0_14adl_serializerENS9_IhNSD_IhEEEEvEEA11_cLi0EEEvRT_RKT0_, symObjAddr: 0x60D4, symBinAddr: 0x100006D14, symSize: 0xD8 }
  - { offsetInCU: 0x60245, offset: 0x60245, size: 0x8, addend: 0x0, symName: __ZN8nlohmann16json_abi_v3_11_36detail10serializerINS0_10basic_jsonINS0_11ordered_mapENSt3__16vectorENS5_12basic_stringIcNS5_11char_traitsIcEENS5_9allocatorIcEEEEbxydSA_NS0_14adl_serializerENS6_IhNSA_IhEEEEvEEE12dump_escapedERKSC_b, symObjAddr: 0x7474, symBinAddr: 0x1000080B4, symSize: 0x5D8 }
  - { offsetInCU: 0x60CDB, offset: 0x60CDB, size: 0x8, addend: 0x0, symName: __ZN8nlohmann16json_abi_v3_11_36detail10serializerINS0_10basic_jsonINS0_11ordered_mapENSt3__16vectorENS5_12basic_stringIcNS5_11char_traitsIcEENS5_9allocatorIcEEEEbxydSA_NS0_14adl_serializerENS6_IhNSA_IhEEEEvEEE4dumpERKSG_bbjj.cold.4, symObjAddr: 0x121D8, symBinAddr: 0x100012E38, symSize: 0x28 }
  - { offsetInCU: 0x60CF3, offset: 0x60CF3, size: 0x8, addend: 0x0, symName: __ZN8nlohmann16json_abi_v3_11_36detail10serializerINS0_10basic_jsonINS0_11ordered_mapENSt3__16vectorENS5_12basic_stringIcNS5_11char_traitsIcEENS5_9allocatorIcEEEEbxydSA_NS0_14adl_serializerENS6_IhNSA_IhEEEEvEEE4dumpERKSG_bbjj.cold.5, symObjAddr: 0x12200, symBinAddr: 0x100012E60, symSize: 0x28 }
  - { offsetInCU: 0x60D0B, offset: 0x60D0B, size: 0x8, addend: 0x0, symName: __ZN8nlohmann16json_abi_v3_11_36detail10serializerINS0_10basic_jsonINS0_11ordered_mapENSt3__16vectorENS5_12basic_stringIcNS5_11char_traitsIcEENS5_9allocatorIcEEEEbxydSA_NS0_14adl_serializerENS6_IhNSA_IhEEEEvEEE4dumpERKSG_bbjj.cold.6, symObjAddr: 0x12228, symBinAddr: 0x100012E88, symSize: 0x28 }
  - { offsetInCU: 0x60D23, offset: 0x60D23, size: 0x8, addend: 0x0, symName: __ZN8nlohmann16json_abi_v3_11_36detail10serializerINS0_10basic_jsonINS0_11ordered_mapENSt3__16vectorENS5_12basic_stringIcNS5_11char_traitsIcEENS5_9allocatorIcEEEEbxydSA_NS0_14adl_serializerENS6_IhNSA_IhEEEEvEEE4dumpERKSG_bbjj.cold.2, symObjAddr: 0x12188, symBinAddr: 0x100012DE8, symSize: 0x28 }
  - { offsetInCU: 0x60D3B, offset: 0x60D3B, size: 0x8, addend: 0x0, symName: __ZN8nlohmann16json_abi_v3_11_36detail10serializerINS0_10basic_jsonINS0_11ordered_mapENSt3__16vectorENS5_12basic_stringIcNS5_11char_traitsIcEENS5_9allocatorIcEEEEbxydSA_NS0_14adl_serializerENS6_IhNSA_IhEEEEvEEE4dumpERKSG_bbjj.cold.3, symObjAddr: 0x121B0, symBinAddr: 0x100012E10, symSize: 0x28 }
  - { offsetInCU: 0x60D53, offset: 0x60D53, size: 0x8, addend: 0x0, symName: __ZN8nlohmann16json_abi_v3_11_36detail10serializerINS0_10basic_jsonINS0_11ordered_mapENSt3__16vectorENS5_12basic_stringIcNS5_11char_traitsIcEENS5_9allocatorIcEEEEbxydSA_NS0_14adl_serializerENS6_IhNSA_IhEEEEvEEE4dumpERKSG_bbjj.cold.7, symObjAddr: 0x12250, symBinAddr: 0x100012EB0, symSize: 0x28 }
  - { offsetInCU: 0x60D6B, offset: 0x60D6B, size: 0x8, addend: 0x0, symName: __ZN8nlohmann16json_abi_v3_11_36detail10serializerINS0_10basic_jsonINS0_11ordered_mapENSt3__16vectorENS5_12basic_stringIcNS5_11char_traitsIcEENS5_9allocatorIcEEEEbxydSA_NS0_14adl_serializerENS6_IhNSA_IhEEEEvEEE4dumpERKSG_bbjj.cold.1, symObjAddr: 0x12160, symBinAddr: 0x100012DC0, symSize: 0x28 }
  - { offsetInCU: 0x60DA0, offset: 0x60DA0, size: 0x8, addend: 0x0, symName: __ZNSt3__120__shared_ptr_emplaceIN8nlohmann16json_abi_v3_11_36detail21output_stream_adapterIcEENS_9allocatorIS5_EEED1Ev, symObjAddr: 0x7414, symBinAddr: 0x100008054, symSize: 0x14 }
  - { offsetInCU: 0x60DC2, offset: 0x60DC2, size: 0x8, addend: 0x0, symName: __ZNSt3__120__shared_ptr_emplaceIN8nlohmann16json_abi_v3_11_36detail21output_stream_adapterIcEENS_9allocatorIS5_EEED1Ev, symObjAddr: 0x7414, symBinAddr: 0x100008054, symSize: 0x14 }
  - { offsetInCU: 0x60DFA, offset: 0x60DFA, size: 0x8, addend: 0x0, symName: __ZNSt3__120__shared_ptr_emplaceIN8nlohmann16json_abi_v3_11_36detail21output_stream_adapterIcEENS_9allocatorIS5_EEED0Ev, symObjAddr: 0x7428, symBinAddr: 0x100008068, symSize: 0x24 }
  - { offsetInCU: 0x60E60, offset: 0x60E60, size: 0x8, addend: 0x0, symName: __ZNSt3__120__shared_ptr_emplaceIN8nlohmann16json_abi_v3_11_36detail21output_stream_adapterIcEENS_9allocatorIS5_EEE16__on_zero_sharedEv, symObjAddr: 0x744C, symBinAddr: 0x10000808C, symSize: 0xC }
  - { offsetInCU: 0x60EED, offset: 0x60EED, size: 0x8, addend: 0x0, symName: __ZNSt3__120__shared_ptr_emplaceIN8nlohmann16json_abi_v3_11_36detail21output_stream_adapterIcEENS_9allocatorIS5_EEE21__on_zero_shared_weakEv, symObjAddr: 0x7458, symBinAddr: 0x100008098, symSize: 0x4 }
  - { offsetInCU: 0x60F20, offset: 0x60F20, size: 0x8, addend: 0x0, symName: __ZNSt3__120__shared_ptr_emplaceIN8nlohmann16json_abi_v3_11_36detail21output_stream_adapterIcEENS_9allocatorIS5_EEE21__on_zero_shared_weakEv, symObjAddr: 0x7458, symBinAddr: 0x100008098, symSize: 0x4 }
  - { offsetInCU: 0x60F42, offset: 0x60F42, size: 0x8, addend: 0x0, symName: __ZNSt3__120__shared_ptr_emplaceIN8nlohmann16json_abi_v3_11_36detail21output_stream_adapterIcEENS_9allocatorIS5_EEE21__on_zero_shared_weakEv, symObjAddr: 0x7458, symBinAddr: 0x100008098, symSize: 0x4 }
  - { offsetInCU: 0x60F64, offset: 0x60F64, size: 0x8, addend: 0x0, symName: __ZNSt3__120__shared_ptr_emplaceIN8nlohmann16json_abi_v3_11_36detail21output_stream_adapterIcEENS_9allocatorIS5_EEE21__on_zero_shared_weakEv, symObjAddr: 0x7458, symBinAddr: 0x100008098, symSize: 0x4 }
  - { offsetInCU: 0x60F90, offset: 0x60F90, size: 0x8, addend: 0x0, symName: __ZNSt3__120__shared_ptr_emplaceIN8nlohmann16json_abi_v3_11_36detail21output_stream_adapterIcEENS_9allocatorIS5_EEE21__on_zero_shared_weakEv, symObjAddr: 0x7458, symBinAddr: 0x100008098, symSize: 0x4 }
  - { offsetInCU: 0x60FB7, offset: 0x60FB7, size: 0x8, addend: 0x0, symName: __ZNSt3__120__shared_ptr_emplaceIN8nlohmann16json_abi_v3_11_36detail21output_stream_adapterIcEENS_9allocatorIS5_EEE21__on_zero_shared_weakEv, symObjAddr: 0x7458, symBinAddr: 0x100008098, symSize: 0x4 }
  - { offsetInCU: 0x60FE2, offset: 0x60FE2, size: 0x8, addend: 0x0, symName: __ZN8nlohmann16json_abi_v3_11_36detail21output_stream_adapterIcE15write_characterEc, symObjAddr: 0x745C, symBinAddr: 0x10000809C, symSize: 0x8 }
  - { offsetInCU: 0x61018, offset: 0x61018, size: 0x8, addend: 0x0, symName: __ZN8nlohmann16json_abi_v3_11_36detail21output_stream_adapterIcE16write_charactersEPKcm, symObjAddr: 0x7464, symBinAddr: 0x1000080A4, symSize: 0x8 }
  - { offsetInCU: 0x6105D, offset: 0x6105D, size: 0x8, addend: 0x0, symName: __ZN8nlohmann16json_abi_v3_11_36detail21output_stream_adapterIcED1Ev, symObjAddr: 0x746C, symBinAddr: 0x1000080AC, symSize: 0x4 }
  - { offsetInCU: 0x61089, offset: 0x61089, size: 0x8, addend: 0x0, symName: __ZN8nlohmann16json_abi_v3_11_36detail21output_stream_adapterIcED0Ev, symObjAddr: 0x7470, symBinAddr: 0x1000080B0, symSize: 0x4 }
  - { offsetInCU: 0x61173, offset: 0x61173, size: 0x8, addend: 0x0, symName: __ZN8nlohmann16json_abi_v3_11_36detail10serializerINS0_10basic_jsonINS0_11ordered_mapENSt3__16vectorENS5_12basic_stringIcNS5_11char_traitsIcEENS5_9allocatorIcEEEEbxydSA_NS0_14adl_serializerENS6_IhNSA_IhEEEEvEEE12dump_escapedERKSC_b.cold.1, symObjAddr: 0x12278, symBinAddr: 0x100012ED8, symSize: 0x28 }
  - { offsetInCU: 0x6118B, offset: 0x6118B, size: 0x8, addend: 0x0, symName: __ZN8nlohmann16json_abi_v3_11_36detail10serializerINS0_10basic_jsonINS0_11ordered_mapENSt3__16vectorENS5_12basic_stringIcNS5_11char_traitsIcEENS5_9allocatorIcEEEEbxydSA_NS0_14adl_serializerENS6_IhNSA_IhEEEEvEEE12dump_escapedERKSC_b.cold.2, symObjAddr: 0x122A0, symBinAddr: 0x100012F00, symSize: 0x28 }
  - { offsetInCU: 0x611A3, offset: 0x611A3, size: 0x8, addend: 0x0, symName: __ZN8nlohmann16json_abi_v3_11_36detail10serializerINS0_10basic_jsonINS0_11ordered_mapENSt3__16vectorENS5_12basic_stringIcNS5_11char_traitsIcEENS5_9allocatorIcEEEEbxydSA_NS0_14adl_serializerENS6_IhNSA_IhEEEEvEEE12dump_integerIyLi0EEEvT_.cold.1, symObjAddr: 0x122C8, symBinAddr: 0x100012F28, symSize: 0x28 }
  - { offsetInCU: 0x611DD, offset: 0x611DD, size: 0x8, addend: 0x0, symName: __ZN8nlohmann16json_abi_v3_11_36detail10serializerINS0_10basic_jsonINS0_11ordered_mapENSt3__16vectorENS5_12basic_stringIcNS5_11char_traitsIcEENS5_9allocatorIcEEEEbxydSA_NS0_14adl_serializerENS6_IhNSA_IhEEEEvEEE12dump_integerIxLi0EEEvT_.cold.1, symObjAddr: 0x122F0, symBinAddr: 0x100012F50, symSize: 0x28 }
  - { offsetInCU: 0x6123B, offset: 0x6123B, size: 0x8, addend: 0x0, symName: __ZN8nlohmann16json_abi_v3_11_36detail8to_charsIdEEPcS3_PKcT_.cold.1, symObjAddr: 0x12318, symBinAddr: 0x100012F78, symSize: 0x28 }
  - { offsetInCU: 0x61253, offset: 0x61253, size: 0x8, addend: 0x0, symName: __ZN8nlohmann16json_abi_v3_11_36detail8to_charsIdEEPcS3_PKcT_.cold.2, symObjAddr: 0x12340, symBinAddr: 0x100012FA0, symSize: 0x28 }
  - { offsetInCU: 0x6126B, offset: 0x6126B, size: 0x8, addend: 0x0, symName: __ZN8nlohmann16json_abi_v3_11_36detail8to_charsIdEEPcS3_PKcT_.cold.3, symObjAddr: 0x12368, symBinAddr: 0x100012FC8, symSize: 0x28 }
  - { offsetInCU: 0x61283, offset: 0x61283, size: 0x8, addend: 0x0, symName: __ZN8nlohmann16json_abi_v3_11_36detail8to_charsIdEEPcS3_PKcT_.cold.4, symObjAddr: 0x12390, symBinAddr: 0x100012FF0, symSize: 0x28 }
  - { offsetInCU: 0x6129B, offset: 0x6129B, size: 0x8, addend: 0x0, symName: __ZN8nlohmann16json_abi_v3_11_36detail8to_charsIdEEPcS3_PKcT_.cold.5, symObjAddr: 0x123B8, symBinAddr: 0x100013018, symSize: 0x28 }
  - { offsetInCU: 0x612B3, offset: 0x612B3, size: 0x8, addend: 0x0, symName: __ZN8nlohmann16json_abi_v3_11_36detail9dtoa_impl6grisu2IdEEvPcRiS5_T_.cold.1, symObjAddr: 0x123E0, symBinAddr: 0x100013040, symSize: 0x28 }
  - { offsetInCU: 0x612CB, offset: 0x612CB, size: 0x8, addend: 0x0, symName: __ZN8nlohmann16json_abi_v3_11_36detail9dtoa_impl6grisu2IdEEvPcRiS5_T_.cold.2, symObjAddr: 0x12408, symBinAddr: 0x100013068, symSize: 0x28 }
  - { offsetInCU: 0x612E3, offset: 0x612E3, size: 0x8, addend: 0x0, symName: __ZN8nlohmann16json_abi_v3_11_36detail9dtoa_impl13format_bufferEPciiii.cold.1, symObjAddr: 0x12430, symBinAddr: 0x100013090, symSize: 0x28 }
  - { offsetInCU: 0x612FB, offset: 0x612FB, size: 0x8, addend: 0x0, symName: __ZN8nlohmann16json_abi_v3_11_36detail9dtoa_impl13format_bufferEPciiii.cold.2, symObjAddr: 0x12458, symBinAddr: 0x1000130B8, symSize: 0x28 }
  - { offsetInCU: 0x61313, offset: 0x61313, size: 0x8, addend: 0x0, symName: __ZN8nlohmann16json_abi_v3_11_36detail9dtoa_impl13format_bufferEPciiii.cold.5, symObjAddr: 0x124D0, symBinAddr: 0x100013130, symSize: 0x28 }
  - { offsetInCU: 0x6132B, offset: 0x6132B, size: 0x8, addend: 0x0, symName: __ZN8nlohmann16json_abi_v3_11_36detail9dtoa_impl13format_bufferEPciiii.cold.3, symObjAddr: 0x12480, symBinAddr: 0x1000130E0, symSize: 0x28 }
  - { offsetInCU: 0x6135A, offset: 0x6135A, size: 0x8, addend: 0x0, symName: __ZN8nlohmann16json_abi_v3_11_36detail9dtoa_impl13format_bufferEPciiii.cold.4, symObjAddr: 0x124A8, symBinAddr: 0x100013108, symSize: 0x28 }
  - { offsetInCU: 0x61449, offset: 0x61449, size: 0x8, addend: 0x0, symName: __ZN8nlohmann16json_abi_v3_11_36detail9dtoa_impl18compute_boundariesIdEENS2_10boundariesET_.cold.1, symObjAddr: 0x124F8, symBinAddr: 0x100013158, symSize: 0x28 }
  - { offsetInCU: 0x61461, offset: 0x61461, size: 0x8, addend: 0x0, symName: __ZN8nlohmann16json_abi_v3_11_36detail9dtoa_impl18compute_boundariesIdEENS2_10boundariesET_.cold.2, symObjAddr: 0x12520, symBinAddr: 0x100013180, symSize: 0x28 }
  - { offsetInCU: 0x61552, offset: 0x61552, size: 0x8, addend: 0x0, symName: __ZN8nlohmann16json_abi_v3_11_36detail9dtoa_impl6grisu2EPcRiS4_NS2_5diyfpES5_S5_.cold.2, symObjAddr: 0x12570, symBinAddr: 0x1000131D0, symSize: 0x28 }
  - { offsetInCU: 0x6156A, offset: 0x6156A, size: 0x8, addend: 0x0, symName: __ZN8nlohmann16json_abi_v3_11_36detail9dtoa_impl6grisu2EPcRiS4_NS2_5diyfpES5_S5_.cold.1, symObjAddr: 0x12548, symBinAddr: 0x1000131A8, symSize: 0x28 }
  - { offsetInCU: 0x615AA, offset: 0x615AA, size: 0x8, addend: 0x0, symName: __ZN8nlohmann16json_abi_v3_11_36detail9dtoa_impl36get_cached_power_for_binary_exponentEi.cold.1, symObjAddr: 0x12598, symBinAddr: 0x1000131F8, symSize: 0x28 }
  - { offsetInCU: 0x615C2, offset: 0x615C2, size: 0x8, addend: 0x0, symName: __ZN8nlohmann16json_abi_v3_11_36detail9dtoa_impl36get_cached_power_for_binary_exponentEi.cold.2, symObjAddr: 0x125C0, symBinAddr: 0x100013220, symSize: 0x28 }
  - { offsetInCU: 0x615DA, offset: 0x615DA, size: 0x8, addend: 0x0, symName: __ZN8nlohmann16json_abi_v3_11_36detail9dtoa_impl36get_cached_power_for_binary_exponentEi.cold.3, symObjAddr: 0x125E8, symBinAddr: 0x100013248, symSize: 0x28 }
  - { offsetInCU: 0x615F2, offset: 0x615F2, size: 0x8, addend: 0x0, symName: __ZN8nlohmann16json_abi_v3_11_36detail9dtoa_impl36get_cached_power_for_binary_exponentEi.cold.6, symObjAddr: 0x12660, symBinAddr: 0x1000132C0, symSize: 0x28 }
  - { offsetInCU: 0x6160A, offset: 0x6160A, size: 0x8, addend: 0x0, symName: __ZN8nlohmann16json_abi_v3_11_36detail9dtoa_impl36get_cached_power_for_binary_exponentEi.cold.4, symObjAddr: 0x12610, symBinAddr: 0x100013270, symSize: 0x28 }
  - { offsetInCU: 0x61622, offset: 0x61622, size: 0x8, addend: 0x0, symName: __ZN8nlohmann16json_abi_v3_11_36detail9dtoa_impl36get_cached_power_for_binary_exponentEi.cold.5, symObjAddr: 0x12638, symBinAddr: 0x100013298, symSize: 0x28 }
  - { offsetInCU: 0x6165F, offset: 0x6165F, size: 0x8, addend: 0x0, symName: __ZN8nlohmann16json_abi_v3_11_36detail9dtoa_impl16grisu2_digit_genEPcRiS4_NS2_5diyfpES5_S5_.cold.4, symObjAddr: 0x12700, symBinAddr: 0x100013360, symSize: 0x28 }
  - { offsetInCU: 0x61677, offset: 0x61677, size: 0x8, addend: 0x0, symName: __ZN8nlohmann16json_abi_v3_11_36detail9dtoa_impl16grisu2_digit_genEPcRiS4_NS2_5diyfpES5_S5_.cold.5, symObjAddr: 0x12728, symBinAddr: 0x100013388, symSize: 0x28 }
  - { offsetInCU: 0x6168F, offset: 0x6168F, size: 0x8, addend: 0x0, symName: __ZN8nlohmann16json_abi_v3_11_36detail9dtoa_impl16grisu2_digit_genEPcRiS4_NS2_5diyfpES5_S5_.cold.6, symObjAddr: 0x12750, symBinAddr: 0x1000133B0, symSize: 0x28 }
  - { offsetInCU: 0x616A7, offset: 0x616A7, size: 0x8, addend: 0x0, symName: __ZN8nlohmann16json_abi_v3_11_36detail9dtoa_impl16grisu2_digit_genEPcRiS4_NS2_5diyfpES5_S5_.cold.1, symObjAddr: 0x12688, symBinAddr: 0x1000132E8, symSize: 0x28 }
  - { offsetInCU: 0x616BF, offset: 0x616BF, size: 0x8, addend: 0x0, symName: __ZN8nlohmann16json_abi_v3_11_36detail9dtoa_impl16grisu2_digit_genEPcRiS4_NS2_5diyfpES5_S5_.cold.2, symObjAddr: 0x126B0, symBinAddr: 0x100013310, symSize: 0x28 }
  - { offsetInCU: 0x616D7, offset: 0x616D7, size: 0x8, addend: 0x0, symName: __ZN8nlohmann16json_abi_v3_11_36detail9dtoa_impl16grisu2_digit_genEPcRiS4_NS2_5diyfpES5_S5_.cold.3, symObjAddr: 0x126D8, symBinAddr: 0x100013338, symSize: 0x28 }
  - { offsetInCU: 0x616EF, offset: 0x616EF, size: 0x8, addend: 0x0, symName: __ZN8nlohmann16json_abi_v3_11_36detail9dtoa_impl16grisu2_digit_genEPcRiS4_NS2_5diyfpES5_S5_.cold.7, symObjAddr: 0x12778, symBinAddr: 0x1000133D8, symSize: 0x28 }
  - { offsetInCU: 0x61707, offset: 0x61707, size: 0x8, addend: 0x0, symName: __ZN8nlohmann16json_abi_v3_11_36detail9dtoa_impl12grisu2_roundEPciyyyy.cold.5, symObjAddr: 0x12840, symBinAddr: 0x1000134A0, symSize: 0x28 }
  - { offsetInCU: 0x6171F, offset: 0x6171F, size: 0x8, addend: 0x0, symName: __ZN8nlohmann16json_abi_v3_11_36detail9dtoa_impl12grisu2_roundEPciyyyy.cold.1, symObjAddr: 0x127A0, symBinAddr: 0x100013400, symSize: 0x28 }
  - { offsetInCU: 0x61737, offset: 0x61737, size: 0x8, addend: 0x0, symName: __ZN8nlohmann16json_abi_v3_11_36detail9dtoa_impl12grisu2_roundEPciyyyy.cold.2, symObjAddr: 0x127C8, symBinAddr: 0x100013428, symSize: 0x28 }
  - { offsetInCU: 0x6174F, offset: 0x6174F, size: 0x8, addend: 0x0, symName: __ZN8nlohmann16json_abi_v3_11_36detail9dtoa_impl12grisu2_roundEPciyyyy.cold.3, symObjAddr: 0x127F0, symBinAddr: 0x100013450, symSize: 0x28 }
  - { offsetInCU: 0x61767, offset: 0x61767, size: 0x8, addend: 0x0, symName: __ZN8nlohmann16json_abi_v3_11_36detail9dtoa_impl12grisu2_roundEPciyyyy.cold.4, symObjAddr: 0x12818, symBinAddr: 0x100013478, symSize: 0x28 }
  - { offsetInCU: 0x61CDF, offset: 0x61CDF, size: 0x8, addend: 0x0, symName: __ZNKSt3__16vectorIKNS_12basic_stringIcNS_11char_traitsIcEENS_9allocatorIcEEEENS4_IS7_EEE20__throw_length_errorB7v160006Ev, symObjAddr: 0x8CD0, symBinAddr: 0x100009910, symSize: 0x14 }
  - { offsetInCU: 0x61D08, offset: 0x61D08, size: 0x8, addend: 0x0, symName: __ZN8nlohmann16json_abi_v3_11_36detail6parserINS0_10basic_jsonINS0_11ordered_mapENSt3__16vectorENS5_12basic_stringIcNS5_11char_traitsIcEENS5_9allocatorIcEEEEbxydSA_NS0_14adl_serializerENS6_IhNSA_IhEEEEvEENS1_20input_stream_adapterEE5parseEbRSG_, symObjAddr: 0x8CE4, symBinAddr: 0x100009924, symSize: 0x7E4 }
  - { offsetInCU: 0x61D13, offset: 0x61D13, size: 0x8, addend: 0x0, symName: __ZNSt3__114__split_bufferIKNS_12basic_stringIcNS_11char_traitsIcEENS_9allocatorIcEEEERNS4_IS7_EEED1Ev, symObjAddr: 0x8C6C, symBinAddr: 0x1000098AC, symSize: 0x64 }
  - { offsetInCU: 0x62623, offset: 0x62623, size: 0x8, addend: 0x0, symName: __ZN8nlohmann16json_abi_v3_11_36detail6parserINS0_10basic_jsonINS0_11ordered_mapENSt3__16vectorENS5_12basic_stringIcNS5_11char_traitsIcEENS5_9allocatorIcEEEEbxydSA_NS0_14adl_serializerENS6_IhNSA_IhEEEEvEENS1_20input_stream_adapterEE18sax_parse_internalINS1_19json_sax_dom_parserISG_EEEEbPT_, symObjAddr: 0xBF80, symBinAddr: 0x10000CBC0, symSize: 0xF84 }
  - { offsetInCU: 0x648BA, offset: 0x648BA, size: 0x8, addend: 0x0, symName: __ZN8nlohmann16json_abi_v3_11_36detail5lexerINS0_10basic_jsonINS0_11ordered_mapENSt3__16vectorENS5_12basic_stringIcNS5_11char_traitsIcEENS5_9allocatorIcEEEEbxydSA_NS0_14adl_serializerENS6_IhNSA_IhEEEEvEENS1_20input_stream_adapterEE4scanEv, symObjAddr: 0x9764, symBinAddr: 0x10000A3A4, symSize: 0x234 }
  - { offsetInCU: 0x64B6A, offset: 0x64B6A, size: 0x8, addend: 0x0, symName: __ZN8nlohmann16json_abi_v3_11_36detail28json_sax_dom_callback_parserINS0_10basic_jsonINS0_11ordered_mapENSt3__16vectorENS5_12basic_stringIcNS5_11char_traitsIcEENS5_9allocatorIcEEEEbxydSA_NS0_14adl_serializerENS6_IhNSA_IhEEEEvEEEC2ERSG_NS5_8functionIFbiNS1_13parse_event_tESI_EEEb, symObjAddr: 0xCF58, symBinAddr: 0x10000DB98, symSize: 0x1D0 }
  - { offsetInCU: 0x65109, offset: 0x65109, size: 0x8, addend: 0x0, symName: __ZN8nlohmann16json_abi_v3_11_36detail6parserINS0_10basic_jsonINS0_11ordered_mapENSt3__16vectorENS5_12basic_stringIcNS5_11char_traitsIcEENS5_9allocatorIcEEEEbxydSA_NS0_14adl_serializerENS6_IhNSA_IhEEEEvEENS1_20input_stream_adapterEE18sax_parse_internalINS1_28json_sax_dom_callback_parserISG_EEEEbPT_, symObjAddr: 0xA894, symBinAddr: 0x10000B4D4, symSize: 0xEF8 }
  - { offsetInCU: 0x671CD, offset: 0x671CD, size: 0x8, addend: 0x0, symName: __ZN8nlohmann16json_abi_v3_11_36detail6parserINS0_10basic_jsonINS0_11ordered_mapENSt3__16vectorENS5_12basic_stringIcNS5_11char_traitsIcEENS5_9allocatorIcEEEEbxydSA_NS0_14adl_serializerENS6_IhNSA_IhEEEEvEENS1_20input_stream_adapterEE17exception_messageENS1_10lexer_baseISG_E10token_typeERKSC_, symObjAddr: 0xBB00, symBinAddr: 0x10000C740, symSize: 0x3CC }
  - { offsetInCU: 0x68318, offset: 0x68318, size: 0x8, addend: 0x0, symName: __ZN8nlohmann16json_abi_v3_11_36detail11parse_error6createIDnLi0EEES2_iRKNS1_10position_tERKNSt3__112basic_stringIcNS7_11char_traitsIcEENS7_9allocatorIcEEEET_, symObjAddr: 0xB8C4, symBinAddr: 0x10000C504, symSize: 0x23C }
  - { offsetInCU: 0x692DE, offset: 0x692DE, size: 0x8, addend: 0x0, symName: __ZN8nlohmann16json_abi_v3_11_36detail28json_sax_dom_callback_parserINS0_10basic_jsonINS0_11ordered_mapENSt3__16vectorENS5_12basic_stringIcNS5_11char_traitsIcEENS5_9allocatorIcEEEEbxydSA_NS0_14adl_serializerENS6_IhNSA_IhEEEEvEEED1Ev, symObjAddr: 0xBF00, symBinAddr: 0x10000CB40, symSize: 0x80 }
  - { offsetInCU: 0x69798, offset: 0x69798, size: 0x8, addend: 0x0, symName: __ZN8nlohmann16json_abi_v3_11_36detail5lexerINS0_10basic_jsonINS0_11ordered_mapENSt3__16vectorENS5_12basic_stringIcNS5_11char_traitsIcEENS5_9allocatorIcEEEEbxydSA_NS0_14adl_serializerENS6_IhNSA_IhEEEEvEENS1_20input_stream_adapterEED1Ev, symObjAddr: 0x9700, symBinAddr: 0x10000A340, symSize: 0x64 }
  - { offsetInCU: 0x69B21, offset: 0x69B21, size: 0x8, addend: 0x0, symName: __ZN8nlohmann16json_abi_v3_11_36detail5lexerINS0_10basic_jsonINS0_11ordered_mapENSt3__16vectorENS5_12basic_stringIcNS5_11char_traitsIcEENS5_9allocatorIcEEEEbxydSA_NS0_14adl_serializerENS6_IhNSA_IhEEEEvEENS1_20input_stream_adapterEE8skip_bomEv, symObjAddr: 0x9998, symBinAddr: 0x10000A5D8, symSize: 0xB0 }
  - { offsetInCU: 0x69C13, offset: 0x69C13, size: 0x8, addend: 0x0, symName: __ZN8nlohmann16json_abi_v3_11_36detail5lexerINS0_10basic_jsonINS0_11ordered_mapENSt3__16vectorENS5_12basic_stringIcNS5_11char_traitsIcEENS5_9allocatorIcEEEEbxydSA_NS0_14adl_serializerENS6_IhNSA_IhEEEEvEENS1_20input_stream_adapterEE12scan_commentEv, symObjAddr: 0x9A48, symBinAddr: 0x10000A688, symSize: 0x10C }
  - { offsetInCU: 0x69C1E, offset: 0x69C1E, size: 0x8, addend: 0x0, symName: __ZN8nlohmann16json_abi_v3_11_36detail5lexerINS0_10basic_jsonINS0_11ordered_mapENSt3__16vectorENS5_12basic_stringIcNS5_11char_traitsIcEENS5_9allocatorIcEEEEbxydSA_NS0_14adl_serializerENS6_IhNSA_IhEEEEvEENS1_20input_stream_adapterEE3getEv, symObjAddr: 0xA4F8, symBinAddr: 0x10000B138, symSize: 0x250 }
  - { offsetInCU: 0x6A0E3, offset: 0x6A0E3, size: 0x8, addend: 0x0, symName: __ZNKSt3__16vectorIcNS_9allocatorIcEEE20__throw_length_errorB7v160006Ev, symObjAddr: 0xA748, symBinAddr: 0x10000B388, symSize: 0x14 }
  - { offsetInCU: 0x6A0F5, offset: 0x6A0F5, size: 0x8, addend: 0x0, symName: __ZN8nlohmann16json_abi_v3_11_36detail5lexerINS0_10basic_jsonINS0_11ordered_mapENSt3__16vectorENS5_12basic_stringIcNS5_11char_traitsIcEENS5_9allocatorIcEEEEbxydSA_NS0_14adl_serializerENS6_IhNSA_IhEEEEvEENS1_20input_stream_adapterEE12scan_commentEv, symObjAddr: 0x9A48, symBinAddr: 0x10000A688, symSize: 0x10C }
  - { offsetInCU: 0x6A216, offset: 0x6A216, size: 0x8, addend: 0x0, symName: __ZN8nlohmann16json_abi_v3_11_36detail5lexerINS0_10basic_jsonINS0_11ordered_mapENSt3__16vectorENS5_12basic_stringIcNS5_11char_traitsIcEENS5_9allocatorIcEEEEbxydSA_NS0_14adl_serializerENS6_IhNSA_IhEEEEvEENS1_20input_stream_adapterEE11scan_stringEv, symObjAddr: 0x9B54, symBinAddr: 0x10000A794, symSize: 0x580 }
  - { offsetInCU: 0x6A221, offset: 0x6A221, size: 0x8, addend: 0x0, symName: __ZN8nlohmann16json_abi_v3_11_36detail5lexerINS0_10basic_jsonINS0_11ordered_mapENSt3__16vectorENS5_12basic_stringIcNS5_11char_traitsIcEENS5_9allocatorIcEEEEbxydSA_NS0_14adl_serializerENS6_IhNSA_IhEEEEvEENS1_20input_stream_adapterEE11scan_numberEv, symObjAddr: 0xA0D4, symBinAddr: 0x10000AD14, symSize: 0x424 }
  - { offsetInCU: 0x6ACB9, offset: 0x6ACB9, size: 0x8, addend: 0x0, symName: __ZN8nlohmann16json_abi_v3_11_36detail5lexerINS0_10basic_jsonINS0_11ordered_mapENSt3__16vectorENS5_12basic_stringIcNS5_11char_traitsIcEENS5_9allocatorIcEEEEbxydSA_NS0_14adl_serializerENS6_IhNSA_IhEEEEvEENS1_20input_stream_adapterEE11scan_stringEv, symObjAddr: 0x9B54, symBinAddr: 0x10000A794, symSize: 0x580 }
  - { offsetInCU: 0x6B5A9, offset: 0x6B5A9, size: 0x8, addend: 0x0, symName: __ZN8nlohmann16json_abi_v3_11_36detail5lexerINS0_10basic_jsonINS0_11ordered_mapENSt3__16vectorENS5_12basic_stringIcNS5_11char_traitsIcEENS5_9allocatorIcEEEEbxydSA_NS0_14adl_serializerENS6_IhNSA_IhEEEEvEENS1_20input_stream_adapterEE8skip_bomEv.cold.1, symObjAddr: 0x12868, symBinAddr: 0x1000134C8, symSize: 0x24 }
  - { offsetInCU: 0x6B5D8, offset: 0x6B5D8, size: 0x8, addend: 0x0, symName: __ZN8nlohmann16json_abi_v3_11_36detail5lexerINS0_10basic_jsonINS0_11ordered_mapENSt3__16vectorENS5_12basic_stringIcNS5_11char_traitsIcEENS5_9allocatorIcEEEEbxydSA_NS0_14adl_serializerENS6_IhNSA_IhEEEEvEENS1_20input_stream_adapterEE12scan_commentEv.cold.1, symObjAddr: 0x1288C, symBinAddr: 0x1000134EC, symSize: 0x24 }
  - { offsetInCU: 0x6B983, offset: 0x6B983, size: 0x8, addend: 0x0, symName: __ZN8nlohmann16json_abi_v3_11_36detail5lexerINS0_10basic_jsonINS0_11ordered_mapENSt3__16vectorENS5_12basic_stringIcNS5_11char_traitsIcEENS5_9allocatorIcEEEEbxydSA_NS0_14adl_serializerENS6_IhNSA_IhEEEEvEENS1_20input_stream_adapterEE13get_codepointEv, symObjAddr: 0xA75C, symBinAddr: 0x10000B39C, symSize: 0x138 }
  - { offsetInCU: 0x6BA5F, offset: 0x6BA5F, size: 0x8, addend: 0x0, symName: __ZN8nlohmann16json_abi_v3_11_36detail6parserINS0_10basic_jsonINS0_11ordered_mapENSt3__16vectorENS5_12basic_stringIcNS5_11char_traitsIcEENS5_9allocatorIcEEEEbxydSA_NS0_14adl_serializerENS6_IhNSA_IhEEEEvEENS1_20input_stream_adapterEE18sax_parse_internalINS1_28json_sax_dom_callback_parserISG_EEEEbPT_, symObjAddr: 0xA894, symBinAddr: 0x10000B4D4, symSize: 0xEF8 }
  - { offsetInCU: 0x6BA6A, offset: 0x6BA6A, size: 0x8, addend: 0x0, symName: __ZN8nlohmann16json_abi_v3_11_36detail5lexerINS0_10basic_jsonINS0_11ordered_mapENSt3__16vectorENS5_12basic_stringIcNS5_11char_traitsIcEENS5_9allocatorIcEEEEbxydSA_NS0_14adl_serializerENS6_IhNSA_IhEEEEvEENS1_20input_stream_adapterEE11scan_stringEv.cold.2, symObjAddr: 0x128D8, symBinAddr: 0x100013538, symSize: 0x28 }
  - { offsetInCU: 0x6BA82, offset: 0x6BA82, size: 0x8, addend: 0x0, symName: __ZN8nlohmann16json_abi_v3_11_36detail5lexerINS0_10basic_jsonINS0_11ordered_mapENSt3__16vectorENS5_12basic_stringIcNS5_11char_traitsIcEENS5_9allocatorIcEEEEbxydSA_NS0_14adl_serializerENS6_IhNSA_IhEEEEvEENS1_20input_stream_adapterEE11scan_stringEv.cold.1, symObjAddr: 0x128B0, symBinAddr: 0x100013510, symSize: 0x28 }
  - { offsetInCU: 0x6BAC6, offset: 0x6BAC6, size: 0x8, addend: 0x0, symName: __ZN8nlohmann16json_abi_v3_11_36detail5lexerINS0_10basic_jsonINS0_11ordered_mapENSt3__16vectorENS5_12basic_stringIcNS5_11char_traitsIcEENS5_9allocatorIcEEEEbxydSA_NS0_14adl_serializerENS6_IhNSA_IhEEEEvEENS1_20input_stream_adapterEE11scan_numberEv.cold.5, symObjAddr: 0x129A0, symBinAddr: 0x100013600, symSize: 0x24 }
  - { offsetInCU: 0x6BAF5, offset: 0x6BAF5, size: 0x8, addend: 0x0, symName: __ZN8nlohmann16json_abi_v3_11_36detail5lexerINS0_10basic_jsonINS0_11ordered_mapENSt3__16vectorENS5_12basic_stringIcNS5_11char_traitsIcEENS5_9allocatorIcEEEEbxydSA_NS0_14adl_serializerENS6_IhNSA_IhEEEEvEENS1_20input_stream_adapterEE11scan_numberEv.cold.2, symObjAddr: 0x12928, symBinAddr: 0x100013588, symSize: 0x28 }
  - { offsetInCU: 0x6BB0D, offset: 0x6BB0D, size: 0x8, addend: 0x0, symName: __ZN8nlohmann16json_abi_v3_11_36detail5lexerINS0_10basic_jsonINS0_11ordered_mapENSt3__16vectorENS5_12basic_stringIcNS5_11char_traitsIcEENS5_9allocatorIcEEEEbxydSA_NS0_14adl_serializerENS6_IhNSA_IhEEEEvEENS1_20input_stream_adapterEE11scan_numberEv.cold.3, symObjAddr: 0x12950, symBinAddr: 0x1000135B0, symSize: 0x28 }
  - { offsetInCU: 0x6BB25, offset: 0x6BB25, size: 0x8, addend: 0x0, symName: __ZN8nlohmann16json_abi_v3_11_36detail5lexerINS0_10basic_jsonINS0_11ordered_mapENSt3__16vectorENS5_12basic_stringIcNS5_11char_traitsIcEENS5_9allocatorIcEEEEbxydSA_NS0_14adl_serializerENS6_IhNSA_IhEEEEvEENS1_20input_stream_adapterEE11scan_numberEv.cold.4, symObjAddr: 0x12978, symBinAddr: 0x1000135D8, symSize: 0x28 }
  - { offsetInCU: 0x6BB3D, offset: 0x6BB3D, size: 0x8, addend: 0x0, symName: __ZN8nlohmann16json_abi_v3_11_36detail5lexerINS0_10basic_jsonINS0_11ordered_mapENSt3__16vectorENS5_12basic_stringIcNS5_11char_traitsIcEENS5_9allocatorIcEEEEbxydSA_NS0_14adl_serializerENS6_IhNSA_IhEEEEvEENS1_20input_stream_adapterEE11scan_numberEv.cold.1, symObjAddr: 0x12900, symBinAddr: 0x100013560, symSize: 0x28 }
  - { offsetInCU: 0x6BBFF, offset: 0x6BBFF, size: 0x8, addend: 0x0, symName: __ZNKSt3__16vectorIcNS_9allocatorIcEEE20__throw_length_errorB7v160006Ev, symObjAddr: 0xA748, symBinAddr: 0x10000B388, symSize: 0x14 }
  - { offsetInCU: 0x6BC28, offset: 0x6BC28, size: 0x8, addend: 0x0, symName: __ZN8nlohmann16json_abi_v3_11_36detail5lexerINS0_10basic_jsonINS0_11ordered_mapENSt3__16vectorENS5_12basic_stringIcNS5_11char_traitsIcEENS5_9allocatorIcEEEEbxydSA_NS0_14adl_serializerENS6_IhNSA_IhEEEEvEENS1_20input_stream_adapterEE13get_codepointEv, symObjAddr: 0xA75C, symBinAddr: 0x10000B39C, symSize: 0x138 }
  - { offsetInCU: 0x6BC33, offset: 0x6BC33, size: 0x8, addend: 0x0, symName: __ZN8nlohmann16json_abi_v3_11_36detail5lexerINS0_10basic_jsonINS0_11ordered_mapENSt3__16vectorENS5_12basic_stringIcNS5_11char_traitsIcEENS5_9allocatorIcEEEEbxydSA_NS0_14adl_serializerENS6_IhNSA_IhEEEEvEENS1_20input_stream_adapterEE13get_codepointEv.cold.1, symObjAddr: 0x129C4, symBinAddr: 0x100013624, symSize: 0x28 }
  - { offsetInCU: 0x6BEFC, offset: 0x6BEFC, size: 0x8, addend: 0x0, symName: __ZN8nlohmann16json_abi_v3_11_36detail28json_sax_dom_callback_parserINS0_10basic_jsonINS0_11ordered_mapENSt3__16vectorENS5_12basic_stringIcNS5_11char_traitsIcEENS5_9allocatorIcEEEEbxydSA_NS0_14adl_serializerENS6_IhNSA_IhEEEEvEEE12handle_valueIRbEENS5_4pairIbPSG_EEOT_b, symObjAddr: 0xF5C8, symBinAddr: 0x100010208, symSize: 0x22C }
  - { offsetInCU: 0x6C521, offset: 0x6C521, size: 0x8, addend: 0x0, symName: __ZN8nlohmann16json_abi_v3_11_36detail28json_sax_dom_callback_parserINS0_10basic_jsonINS0_11ordered_mapENSt3__16vectorENS5_12basic_stringIcNS5_11char_traitsIcEENS5_9allocatorIcEEEEbxydSA_NS0_14adl_serializerENS6_IhNSA_IhEEEEvEEE12handle_valueIRxEENS5_4pairIbPSG_EEOT_b, symObjAddr: 0xFA20, symBinAddr: 0x100010660, symSize: 0x228 }
  - { offsetInCU: 0x6CB54, offset: 0x6CB54, size: 0x8, addend: 0x0, symName: __ZN8nlohmann16json_abi_v3_11_36detail28json_sax_dom_callback_parserINS0_10basic_jsonINS0_11ordered_mapENSt3__16vectorENS5_12basic_stringIcNS5_11char_traitsIcEENS5_9allocatorIcEEEEbxydSA_NS0_14adl_serializerENS6_IhNSA_IhEEEEvEEE12handle_valueIRSC_EENS5_4pairIbPSG_EEOT_b, symObjAddr: 0xFC48, symBinAddr: 0x100010888, symSize: 0x280 }
  - { offsetInCU: 0x6D3FA, offset: 0x6D3FA, size: 0x8, addend: 0x0, symName: __ZN8nlohmann16json_abi_v3_11_36detail28json_sax_dom_callback_parserINS0_10basic_jsonINS0_11ordered_mapENSt3__16vectorENS5_12basic_stringIcNS5_11char_traitsIcEENS5_9allocatorIcEEEEbxydSA_NS0_14adl_serializerENS6_IhNSA_IhEEEEvEEE12start_objectEm, symObjAddr: 0xD5D4, symBinAddr: 0x10000E214, symSize: 0x2D8 }
  - { offsetInCU: 0x6DCB0, offset: 0x6DCB0, size: 0x8, addend: 0x0, symName: __ZN8nlohmann16json_abi_v3_11_36detail28json_sax_dom_callback_parserINS0_10basic_jsonINS0_11ordered_mapENSt3__16vectorENS5_12basic_stringIcNS5_11char_traitsIcEENS5_9allocatorIcEEEEbxydSA_NS0_14adl_serializerENS6_IhNSA_IhEEEEvEEE10end_objectEv, symObjAddr: 0xD8AC, symBinAddr: 0x10000E4EC, symSize: 0x274 }
  - { offsetInCU: 0x6E406, offset: 0x6E406, size: 0x8, addend: 0x0, symName: __ZN8nlohmann16json_abi_v3_11_36detail28json_sax_dom_callback_parserINS0_10basic_jsonINS0_11ordered_mapENSt3__16vectorENS5_12basic_stringIcNS5_11char_traitsIcEENS5_9allocatorIcEEEEbxydSA_NS0_14adl_serializerENS6_IhNSA_IhEEEEvEEE12handle_valueIDnEENS5_4pairIbPSG_EEOT_b, symObjAddr: 0xF7F4, symBinAddr: 0x100010434, symSize: 0x22C }
  - { offsetInCU: 0x6E940, offset: 0x6E940, size: 0x8, addend: 0x0, symName: __ZNK8nlohmann16json_abi_v3_11_36detail5lexerINS0_10basic_jsonINS0_11ordered_mapENSt3__16vectorENS5_12basic_stringIcNS5_11char_traitsIcEENS5_9allocatorIcEEEEbxydSA_NS0_14adl_serializerENS6_IhNSA_IhEEEEvEENS1_20input_stream_adapterEE16get_token_stringEv, symObjAddr: 0xB7E0, symBinAddr: 0x10000C420, symSize: 0xE4 }
  - { offsetInCU: 0x6EB73, offset: 0x6EB73, size: 0x8, addend: 0x0, symName: __ZN8nlohmann16json_abi_v3_11_36detail28json_sax_dom_callback_parserINS0_10basic_jsonINS0_11ordered_mapENSt3__16vectorENS5_12basic_stringIcNS5_11char_traitsIcEENS5_9allocatorIcEEEEbxydSA_NS0_14adl_serializerENS6_IhNSA_IhEEEEvEEE12handle_valueIRyEENS5_4pairIbPSG_EEOT_b, symObjAddr: 0xFEC8, symBinAddr: 0x100010B08, symSize: 0x22C }
  - { offsetInCU: 0x6F1A6, offset: 0x6F1A6, size: 0x8, addend: 0x0, symName: __ZN8nlohmann16json_abi_v3_11_36detail28json_sax_dom_callback_parserINS0_10basic_jsonINS0_11ordered_mapENSt3__16vectorENS5_12basic_stringIcNS5_11char_traitsIcEENS5_9allocatorIcEEEEbxydSA_NS0_14adl_serializerENS6_IhNSA_IhEEEEvEEE11start_arrayEm, symObjAddr: 0xDD0C, symBinAddr: 0x10000E94C, symSize: 0x2DC }
  - { offsetInCU: 0x6FA5C, offset: 0x6FA5C, size: 0x8, addend: 0x0, symName: __ZN8nlohmann16json_abi_v3_11_36detail28json_sax_dom_callback_parserINS0_10basic_jsonINS0_11ordered_mapENSt3__16vectorENS5_12basic_stringIcNS5_11char_traitsIcEENS5_9allocatorIcEEEEbxydSA_NS0_14adl_serializerENS6_IhNSA_IhEEEEvEEE9end_arrayEv, symObjAddr: 0xDFE8, symBinAddr: 0x10000EC28, symSize: 0x104 }
  - { offsetInCU: 0x6FDAD, offset: 0x6FDAD, size: 0x8, addend: 0x0, symName: __ZN8nlohmann16json_abi_v3_11_36detail28json_sax_dom_callback_parserINS0_10basic_jsonINS0_11ordered_mapENSt3__16vectorENS5_12basic_stringIcNS5_11char_traitsIcEENS5_9allocatorIcEEEEbxydSA_NS0_14adl_serializerENS6_IhNSA_IhEEEEvEEE11parse_errorINS1_12out_of_rangeEEEbmRKSC_RKT_, symObjAddr: 0xE0EC, symBinAddr: 0x10000ED2C, symSize: 0x54 }
  - { offsetInCU: 0x6FDB8, offset: 0x6FDB8, size: 0x8, addend: 0x0, symName: __ZN8nlohmann16json_abi_v3_11_36detail28json_sax_dom_callback_parserINS0_10basic_jsonINS0_11ordered_mapENSt3__16vectorENS5_12basic_stringIcNS5_11char_traitsIcEENS5_9allocatorIcEEEEbxydSA_NS0_14adl_serializerENS6_IhNSA_IhEEEEvEEE12handle_valueIRdEENS5_4pairIbPSG_EEOT_b, symObjAddr: 0xF398, symBinAddr: 0x10000FFD8, symSize: 0x230 }
  - { offsetInCU: 0x703FD, offset: 0x703FD, size: 0x8, addend: 0x0, symName: __ZN8nlohmann16json_abi_v3_11_36detail28json_sax_dom_callback_parserINS0_10basic_jsonINS0_11ordered_mapENSt3__16vectorENS5_12basic_stringIcNS5_11char_traitsIcEENS5_9allocatorIcEEEEbxydSA_NS0_14adl_serializerENS6_IhNSA_IhEEEEvEEE3keyERSC_, symObjAddr: 0xDB20, symBinAddr: 0x10000E760, symSize: 0x1EC }
  - { offsetInCU: 0x70A3E, offset: 0x70A3E, size: 0x8, addend: 0x0, symName: __ZNSt3__16vectorIbNS_9allocatorIbEEE7reserveEm, symObjAddr: 0xD128, symBinAddr: 0x10000DD68, symSize: 0xD4 }
  - { offsetInCU: 0x70FAB, offset: 0x70FAB, size: 0x8, addend: 0x0, symName: __ZN8nlohmann16json_abi_v3_11_36detail28json_sax_dom_callback_parserINS0_10basic_jsonINS0_11ordered_mapENSt3__16vectorENS5_12basic_stringIcNS5_11char_traitsIcEENS5_9allocatorIcEEEEbxydSA_NS0_14adl_serializerENS6_IhNSA_IhEEEEvEEE11parse_errorINS1_11parse_errorEEEbmRKSC_RKT_, symObjAddr: 0xB78C, symBinAddr: 0x10000C3CC, symSize: 0x54 }
  - { offsetInCU: 0x70FFC, offset: 0x70FFC, size: 0x8, addend: 0x0, symName: __ZN8nlohmann16json_abi_v3_11_36detail12out_of_range6createIDnLi0EEES2_iRKNSt3__112basic_stringIcNS4_11char_traitsIcEENS4_9allocatorIcEEEET_, symObjAddr: 0xE140, symBinAddr: 0x10000ED80, symSize: 0x1C4 }
  - { offsetInCU: 0x71D8B, offset: 0x71D8B, size: 0x8, addend: 0x0, symName: __ZN8nlohmann16json_abi_v3_11_36detail28json_sax_dom_callback_parserINS0_10basic_jsonINS0_11ordered_mapENSt3__16vectorENS5_12basic_stringIcNS5_11char_traitsIcEENS5_9allocatorIcEEEEbxydSA_NS0_14adl_serializerENS6_IhNSA_IhEEEEvEEE11parse_errorINS1_12out_of_rangeEEEbmRKSC_RKT_, symObjAddr: 0xE0EC, symBinAddr: 0x10000ED2C, symSize: 0x54 }
  - { offsetInCU: 0x71DF9, offset: 0x71DF9, size: 0x8, addend: 0x0, symName: __ZNKSt3__16vectorIbNS_9allocatorIbEEE20__throw_length_errorB7v160006Ev, symObjAddr: 0xD1FC, symBinAddr: 0x10000DE3C, symSize: 0x14 }
  - { offsetInCU: 0x71E22, offset: 0x71E22, size: 0x8, addend: 0x0, symName: __ZNSt3__16vectorIbNS_9allocatorIbEEE18__construct_at_endINS_14__bit_iteratorIS3_Lb0ELm0EEEEENS_9enable_ifIXsr27__is_cpp17_forward_iteratorIT_EE5valueEvE4typeES8_S8_, symObjAddr: 0xD210, symBinAddr: 0x10000DE50, symSize: 0x188 }
  - { offsetInCU: 0x71E2D, offset: 0x71E2D, size: 0x8, addend: 0x0, symName: __ZN8nlohmann16json_abi_v3_11_36detail11parse_errorC1ERKS2_, symObjAddr: 0x100F4, symBinAddr: 0x100010D34, symSize: 0x60 }
  - { offsetInCU: 0x71F1C, offset: 0x71F1C, size: 0x8, addend: 0x0, symName: __ZN8nlohmann16json_abi_v3_11_36detail11parse_error15position_stringERKNS1_10position_tE, symObjAddr: 0x1031C, symBinAddr: 0x100010F5C, symSize: 0xDC }
  - { offsetInCU: 0x7243F, offset: 0x7243F, size: 0x8, addend: 0x0, symName: __ZN8nlohmann16json_abi_v3_11_36detail11parse_errorD1Ev, symObjAddr: 0xBECC, symBinAddr: 0x10000CB0C, symSize: 0x34 }
  - { offsetInCU: 0x725F5, offset: 0x725F5, size: 0x8, addend: 0x0, symName: __ZN8nlohmann16json_abi_v3_11_36detail19json_sax_dom_parserINS0_10basic_jsonINS0_11ordered_mapENSt3__16vectorENS5_12basic_stringIcNS5_11char_traitsIcEENS5_9allocatorIcEEEEbxydSA_NS0_14adl_serializerENS6_IhNSA_IhEEEEvEEE12handle_valueIRbEEPSG_OT_, symObjAddr: 0x10F70, symBinAddr: 0x100011BB0, symSize: 0xF4 }
  - { offsetInCU: 0x72AD7, offset: 0x72AD7, size: 0x8, addend: 0x0, symName: __ZNSt3__16vectorIN8nlohmann16json_abi_v3_11_310basic_jsonINS2_11ordered_mapES0_NS_12basic_stringIcNS_11char_traitsIcEENS_9allocatorIcEEEEbxydS8_NS2_14adl_serializerENS0_IhNS8_IhEEEEvEENS8_ISE_EEE24__emplace_back_slow_pathIJRbEEEvDpOT_, symObjAddr: 0x11064, symBinAddr: 0x100011CA4, symSize: 0x128 }
  - { offsetInCU: 0x72AEB, offset: 0x72AEB, size: 0x8, addend: 0x0, symName: __ZN8nlohmann16json_abi_v3_11_36detail19json_sax_dom_parserINS0_10basic_jsonINS0_11ordered_mapENSt3__16vectorENS5_12basic_stringIcNS5_11char_traitsIcEENS5_9allocatorIcEEEEbxydSA_NS0_14adl_serializerENS6_IhNSA_IhEEEEvEEE12handle_valueIRxEEPSG_OT_, symObjAddr: 0x11394, symBinAddr: 0x100011FD4, symSize: 0xF4 }
  - { offsetInCU: 0x72FF7, offset: 0x72FF7, size: 0x8, addend: 0x0, symName: __ZNSt3__16vectorIN8nlohmann16json_abi_v3_11_310basic_jsonINS2_11ordered_mapES0_NS_12basic_stringIcNS_11char_traitsIcEENS_9allocatorIcEEEEbxydS8_NS2_14adl_serializerENS0_IhNS8_IhEEEEvEENS8_ISE_EEE24__emplace_back_slow_pathIJRxEEEvDpOT_, symObjAddr: 0x11488, symBinAddr: 0x1000120C8, symSize: 0x128 }
  - { offsetInCU: 0x7300B, offset: 0x7300B, size: 0x8, addend: 0x0, symName: __ZN8nlohmann16json_abi_v3_11_36detail19json_sax_dom_parserINS0_10basic_jsonINS0_11ordered_mapENSt3__16vectorENS5_12basic_stringIcNS5_11char_traitsIcEENS5_9allocatorIcEEEEbxydSA_NS0_14adl_serializerENS6_IhNSA_IhEEEEvEEE12handle_valueIRSC_EEPSG_OT_, symObjAddr: 0x115B0, symBinAddr: 0x1000121F0, symSize: 0x1E4 }
  - { offsetInCU: 0x73C9D, offset: 0x73C9D, size: 0x8, addend: 0x0, symName: __ZN8nlohmann16json_abi_v3_11_36detail19json_sax_dom_parserINS0_10basic_jsonINS0_11ordered_mapENSt3__16vectorENS5_12basic_stringIcNS5_11char_traitsIcEENS5_9allocatorIcEEEEbxydSA_NS0_14adl_serializerENS6_IhNSA_IhEEEEvEEE12start_objectEm, symObjAddr: 0x105E4, symBinAddr: 0x100011224, symSize: 0x214 }
  - { offsetInCU: 0x743E2, offset: 0x743E2, size: 0x8, addend: 0x0, symName: __ZN8nlohmann16json_abi_v3_11_36detail19json_sax_dom_parserINS0_10basic_jsonINS0_11ordered_mapENSt3__16vectorENS5_12basic_stringIcNS5_11char_traitsIcEENS5_9allocatorIcEEEEbxydSA_NS0_14adl_serializerENS6_IhNSA_IhEEEEvEEE12handle_valueIDnEEPSG_OT_, symObjAddr: 0x1118C, symBinAddr: 0x100011DCC, symSize: 0xE8 }
  - { offsetInCU: 0x74600, offset: 0x74600, size: 0x8, addend: 0x0, symName: __ZNSt3__16vectorIN8nlohmann16json_abi_v3_11_310basic_jsonINS2_11ordered_mapES0_NS_12basic_stringIcNS_11char_traitsIcEENS_9allocatorIcEEEEbxydS8_NS2_14adl_serializerENS0_IhNS8_IhEEEEvEENS8_ISE_EEE24__emplace_back_slow_pathIJDnEEEvDpOT_, symObjAddr: 0x11274, symBinAddr: 0x100011EB4, symSize: 0x120 }
  - { offsetInCU: 0x74614, offset: 0x74614, size: 0x8, addend: 0x0, symName: __ZN8nlohmann16json_abi_v3_11_36detail19json_sax_dom_parserINS0_10basic_jsonINS0_11ordered_mapENSt3__16vectorENS5_12basic_stringIcNS5_11char_traitsIcEENS5_9allocatorIcEEEEbxydSA_NS0_14adl_serializerENS6_IhNSA_IhEEEEvEEE12handle_valueIRyEEPSG_OT_, symObjAddr: 0x1192C, symBinAddr: 0x10001256C, symSize: 0xF4 }
  - { offsetInCU: 0x74B20, offset: 0x74B20, size: 0x8, addend: 0x0, symName: __ZNSt3__16vectorIN8nlohmann16json_abi_v3_11_310basic_jsonINS2_11ordered_mapES0_NS_12basic_stringIcNS_11char_traitsIcEENS_9allocatorIcEEEEbxydS8_NS2_14adl_serializerENS0_IhNS8_IhEEEEvEENS8_ISE_EEE24__emplace_back_slow_pathIJRyEEEvDpOT_, symObjAddr: 0x11A20, symBinAddr: 0x100012660, symSize: 0x128 }
  - { offsetInCU: 0x74B34, offset: 0x74B34, size: 0x8, addend: 0x0, symName: __ZN8nlohmann16json_abi_v3_11_36detail19json_sax_dom_parserINS0_10basic_jsonINS0_11ordered_mapENSt3__16vectorENS5_12basic_stringIcNS5_11char_traitsIcEENS5_9allocatorIcEEEEbxydSA_NS0_14adl_serializerENS6_IhNSA_IhEEEEvEEE11start_arrayEm, symObjAddr: 0x10894, symBinAddr: 0x1000114D4, symSize: 0x214 }
  - { offsetInCU: 0x75279, offset: 0x75279, size: 0x8, addend: 0x0, symName: __ZN8nlohmann16json_abi_v3_11_36detail19json_sax_dom_parserINS0_10basic_jsonINS0_11ordered_mapENSt3__16vectorENS5_12basic_stringIcNS5_11char_traitsIcEENS5_9allocatorIcEEEEbxydSA_NS0_14adl_serializerENS6_IhNSA_IhEEEEvEEE12handle_valueIRdEEPSG_OT_, symObjAddr: 0x10D48, symBinAddr: 0x100011988, symSize: 0xFC }
  - { offsetInCU: 0x757AB, offset: 0x757AB, size: 0x8, addend: 0x0, symName: __ZNSt3__16vectorIN8nlohmann16json_abi_v3_11_310basic_jsonINS2_11ordered_mapES0_NS_12basic_stringIcNS_11char_traitsIcEENS_9allocatorIcEEEEbxydS8_NS2_14adl_serializerENS0_IhNS8_IhEEEEvEENS8_ISE_EEE24__emplace_back_slow_pathIJRdEEEvDpOT_, symObjAddr: 0x10E44, symBinAddr: 0x100011A84, symSize: 0x12C }
  - { offsetInCU: 0x757BF, offset: 0x757BF, size: 0x8, addend: 0x0, symName: __ZN8nlohmann16json_abi_v3_11_36detail19json_sax_dom_parserINS0_10basic_jsonINS0_11ordered_mapENSt3__16vectorENS5_12basic_stringIcNS5_11char_traitsIcEENS5_9allocatorIcEEEEbxydSA_NS0_14adl_serializerENS6_IhNSA_IhEEEEvEEE3keyERSC_, symObjAddr: 0x107F8, symBinAddr: 0x100011438, symSize: 0x9C }
  - { offsetInCU: 0x758CD, offset: 0x758CD, size: 0x8, addend: 0x0, symName: __ZN8nlohmann16json_abi_v3_11_36detail19json_sax_dom_parserINS0_10basic_jsonINS0_11ordered_mapENSt3__16vectorENS5_12basic_stringIcNS5_11char_traitsIcEENS5_9allocatorIcEEEEbxydSA_NS0_14adl_serializerENS6_IhNSA_IhEEEEvEEE11parse_errorINS1_11parse_errorEEEbmRKSC_RKT_, symObjAddr: 0xCF04, symBinAddr: 0x10000DB44, symSize: 0x54 }
  - { offsetInCU: 0x7591E, offset: 0x7591E, size: 0x8, addend: 0x0, symName: __ZN8nlohmann16json_abi_v3_11_36detail19json_sax_dom_parserINS0_10basic_jsonINS0_11ordered_mapENSt3__16vectorENS5_12basic_stringIcNS5_11char_traitsIcEENS5_9allocatorIcEEEEbxydSA_NS0_14adl_serializerENS6_IhNSA_IhEEEEvEEE11parse_errorINS1_12out_of_rangeEEEbmRKSC_RKT_, symObjAddr: 0x10AA8, symBinAddr: 0x1000116E8, symSize: 0x54 }
  - { offsetInCU: 0x75B38, offset: 0x75B38, size: 0x8, addend: 0x0, symName: __ZNSt3__16vectorIbNS_9allocatorIbEEE18__construct_at_endINS_14__bit_iteratorIS3_Lb0ELm0EEEEENS_9enable_ifIXsr27__is_cpp17_forward_iteratorIT_EE5valueEvE4typeES8_S8_, symObjAddr: 0xD210, symBinAddr: 0x10000DE50, symSize: 0x188 }
  - { offsetInCU: 0x76424, offset: 0x76424, size: 0x8, addend: 0x0, symName: __ZN8nlohmann16json_abi_v3_11_36detail28json_sax_dom_callback_parserINS0_10basic_jsonINS0_11ordered_mapENSt3__16vectorENS5_12basic_stringIcNS5_11char_traitsIcEENS5_9allocatorIcEEEEbxydSA_NS0_14adl_serializerENS6_IhNSA_IhEEEEvEEE12handle_valueINS1_7value_tEEENS5_4pairIbPSG_EEOT_b, symObjAddr: 0xE3EC, symBinAddr: 0x10000F02C, symSize: 0x22C }
  - { offsetInCU: 0x76978, offset: 0x76978, size: 0x8, addend: 0x0, symName: __ZN8nlohmann16json_abi_v3_11_36detail12out_of_range6createIPNS0_10basic_jsonINS0_11ordered_mapENSt3__16vectorENS6_12basic_stringIcNS6_11char_traitsIcEENS6_9allocatorIcEEEEbxydSB_NS0_14adl_serializerENS7_IhNSB_IhEEEEvEELi0EEES2_iRKSD_T_, symObjAddr: 0xE618, symBinAddr: 0x10000F258, symSize: 0x1C4 }
  - { offsetInCU: 0x776F6, offset: 0x776F6, size: 0x8, addend: 0x0, symName: __ZNKSt3__16vectorIPN8nlohmann16json_abi_v3_11_310basic_jsonINS2_11ordered_mapES0_NS_12basic_stringIcNS_11char_traitsIcEENS_9allocatorIcEEEEbxydS8_NS2_14adl_serializerENS0_IhNS8_IhEEEEvEENS8_ISF_EEE20__throw_length_errorB7v160006Ev, symObjAddr: 0xE9EC, symBinAddr: 0x10000F62C, symSize: 0x14 }
  - { offsetInCU: 0x7771F, offset: 0x7771F, size: 0x8, addend: 0x0, symName: __ZN8nlohmann16json_abi_v3_11_36detail12out_of_rangeD0Ev, symObjAddr: 0xEA00, symBinAddr: 0x10000F640, symSize: 0x38 }
  - { offsetInCU: 0x777A2, offset: 0x777A2, size: 0x8, addend: 0x0, symName: __ZNK8nlohmann16json_abi_v3_11_36detail9iter_implINS0_10basic_jsonINS0_11ordered_mapENSt3__16vectorENS5_12basic_stringIcNS5_11char_traitsIcEENS5_9allocatorIcEEEEbxydSA_NS0_14adl_serializerENS6_IhNSA_IhEEEEvEEEptEv, symObjAddr: 0xEA38, symBinAddr: 0x10000F678, symSize: 0x11C }
  - { offsetInCU: 0x77A58, offset: 0x77A58, size: 0x8, addend: 0x0, symName: __ZN8nlohmann16json_abi_v3_11_310basic_jsonINS0_11ordered_mapENSt3__16vectorENS3_12basic_stringIcNS3_11char_traitsIcEENS3_9allocatorIcEEEEbxydS8_NS0_14adl_serializerENS4_IhNS8_IhEEEEvE5eraseINS0_6detail9iter_implISE_EELi0EEET_SJ_, symObjAddr: 0xEB54, symBinAddr: 0x10000F794, symSize: 0x2F0 }
  - { offsetInCU: 0x78230, offset: 0x78230, size: 0x8, addend: 0x0, symName: __ZN8nlohmann16json_abi_v3_11_36detail28json_sax_dom_callback_parserINS0_10basic_jsonINS0_11ordered_mapENSt3__16vectorENS5_12basic_stringIcNS5_11char_traitsIcEENS5_9allocatorIcEEEEbxydSA_NS0_14adl_serializerENS6_IhNSA_IhEEEEvEEE10end_objectEv.cold.3, symObjAddr: 0x12A3C, symBinAddr: 0x10001369C, symSize: 0x28 }
  - { offsetInCU: 0x7825F, offset: 0x7825F, size: 0x8, addend: 0x0, symName: __ZN8nlohmann16json_abi_v3_11_36detail28json_sax_dom_callback_parserINS0_10basic_jsonINS0_11ordered_mapENSt3__16vectorENS5_12basic_stringIcNS5_11char_traitsIcEENS5_9allocatorIcEEEEbxydSA_NS0_14adl_serializerENS6_IhNSA_IhEEEEvEEE10end_objectEv.cold.1, symObjAddr: 0x129EC, symBinAddr: 0x10001364C, symSize: 0x28 }
  - { offsetInCU: 0x78277, offset: 0x78277, size: 0x8, addend: 0x0, symName: __ZN8nlohmann16json_abi_v3_11_36detail28json_sax_dom_callback_parserINS0_10basic_jsonINS0_11ordered_mapENSt3__16vectorENS5_12basic_stringIcNS5_11char_traitsIcEENS5_9allocatorIcEEEEbxydSA_NS0_14adl_serializerENS6_IhNSA_IhEEEEvEEE10end_objectEv.cold.2, symObjAddr: 0x12A14, symBinAddr: 0x100013674, symSize: 0x28 }
  - { offsetInCU: 0x78462, offset: 0x78462, size: 0x8, addend: 0x0, symName: __ZN8nlohmann16json_abi_v3_11_36detail28json_sax_dom_callback_parserINS0_10basic_jsonINS0_11ordered_mapENSt3__16vectorENS5_12basic_stringIcNS5_11char_traitsIcEENS5_9allocatorIcEEEEbxydSA_NS0_14adl_serializerENS6_IhNSA_IhEEEEvEEE9end_arrayEv.cold.1, symObjAddr: 0x12A64, symBinAddr: 0x1000136C4, symSize: 0x28 }
  - { offsetInCU: 0x7847A, offset: 0x7847A, size: 0x8, addend: 0x0, symName: __ZN8nlohmann16json_abi_v3_11_36detail28json_sax_dom_callback_parserINS0_10basic_jsonINS0_11ordered_mapENSt3__16vectorENS5_12basic_stringIcNS5_11char_traitsIcEENS5_9allocatorIcEEEEbxydSA_NS0_14adl_serializerENS6_IhNSA_IhEEEEvEEE9end_arrayEv.cold.2, symObjAddr: 0x12A8C, symBinAddr: 0x1000136EC, symSize: 0x28 }
  - { offsetInCU: 0x78492, offset: 0x78492, size: 0x8, addend: 0x0, symName: __ZN8nlohmann16json_abi_v3_11_36detail12out_of_rangeC1ERKS2_, symObjAddr: 0xF344, symBinAddr: 0x10000FF84, symSize: 0x54 }
  - { offsetInCU: 0x78593, offset: 0x78593, size: 0x8, addend: 0x0, symName: __ZN8nlohmann16json_abi_v3_11_36detail12out_of_rangeD1Ev, symObjAddr: 0xE3B8, symBinAddr: 0x10000EFF8, symSize: 0x34 }
  - { offsetInCU: 0x786C2, offset: 0x786C2, size: 0x8, addend: 0x0, symName: __ZNSt3__16vectorIN8nlohmann16json_abi_v3_11_310basic_jsonINS2_11ordered_mapES0_NS_12basic_stringIcNS_11char_traitsIcEENS_9allocatorIcEEEEbxydS8_NS2_14adl_serializerENS0_IhNS8_IhEEEEvEENS8_ISE_EEE24__emplace_back_slow_pathIJSE_EEEvDpOT_, symObjAddr: 0xE8C8, symBinAddr: 0x10000F508, symSize: 0x124 }
  - { offsetInCU: 0x78C09, offset: 0x78C09, size: 0x8, addend: 0x0, symName: __ZNKSt3__16vectorIPN8nlohmann16json_abi_v3_11_310basic_jsonINS2_11ordered_mapES0_NS_12basic_stringIcNS_11char_traitsIcEENS_9allocatorIcEEEEbxydS8_NS2_14adl_serializerENS0_IhNS8_IhEEEEvEENS8_ISF_EEE20__throw_length_errorB7v160006Ev, symObjAddr: 0xE9EC, symBinAddr: 0x10000F62C, symSize: 0x14 }
  - { offsetInCU: 0x78C1F, offset: 0x78C1F, size: 0x8, addend: 0x0, symName: __ZN8nlohmann16json_abi_v3_11_36detail28json_sax_dom_callback_parserINS0_10basic_jsonINS0_11ordered_mapENSt3__16vectorENS5_12basic_stringIcNS5_11char_traitsIcEENS5_9allocatorIcEEEEbxydSA_NS0_14adl_serializerENS6_IhNSA_IhEEEEvEEE12handle_valueINS1_7value_tEEENS5_4pairIbPSG_EEOT_b.cold.1, symObjAddr: 0x12AB4, symBinAddr: 0x100013714, symSize: 0x24 }
  - { offsetInCU: 0x78CAE, offset: 0x78CAE, size: 0x8, addend: 0x0, symName: __ZNSt3__117bad_function_callD1Ev, symObjAddr: 0xE8B0, symBinAddr: 0x10000F4F0, symSize: 0x4 }
  - { offsetInCU: 0x78CD0, offset: 0x78CD0, size: 0x8, addend: 0x0, symName: __ZNSt3__117bad_function_callD1Ev, symObjAddr: 0xE8B0, symBinAddr: 0x10000F4F0, symSize: 0x4 }
  - { offsetInCU: 0x78D04, offset: 0x78D04, size: 0x8, addend: 0x0, symName: __ZNSt3__117bad_function_callD0Ev, symObjAddr: 0xE8B4, symBinAddr: 0x10000F4F4, symSize: 0x14 }
  - { offsetInCU: 0x78D65, offset: 0x78D65, size: 0x8, addend: 0x0, symName: __ZN8nlohmann16json_abi_v3_11_36detail12out_of_rangeD0Ev, symObjAddr: 0xEA00, symBinAddr: 0x10000F640, symSize: 0x38 }
  - { offsetInCU: 0x78DEA, offset: 0x78DEA, size: 0x8, addend: 0x0, symName: __ZNK8nlohmann16json_abi_v3_11_36detail9iter_implINS0_10basic_jsonINS0_11ordered_mapENSt3__16vectorENS5_12basic_stringIcNS5_11char_traitsIcEENS5_9allocatorIcEEEEbxydSA_NS0_14adl_serializerENS6_IhNSA_IhEEEEvEEEptEv.cold.3, symObjAddr: 0x12B28, symBinAddr: 0x100013788, symSize: 0x28 }
  - { offsetInCU: 0x78E02, offset: 0x78E02, size: 0x8, addend: 0x0, symName: __ZNK8nlohmann16json_abi_v3_11_36detail9iter_implINS0_10basic_jsonINS0_11ordered_mapENSt3__16vectorENS5_12basic_stringIcNS5_11char_traitsIcEENS5_9allocatorIcEEEEbxydSA_NS0_14adl_serializerENS6_IhNSA_IhEEEEvEEEptEv.cold.1, symObjAddr: 0x12AD8, symBinAddr: 0x100013738, symSize: 0x28 }
  - { offsetInCU: 0x78E1A, offset: 0x78E1A, size: 0x8, addend: 0x0, symName: __ZNK8nlohmann16json_abi_v3_11_36detail9iter_implINS0_10basic_jsonINS0_11ordered_mapENSt3__16vectorENS5_12basic_stringIcNS5_11char_traitsIcEENS5_9allocatorIcEEEEbxydSA_NS0_14adl_serializerENS6_IhNSA_IhEEEEvEEEptEv.cold.2, symObjAddr: 0x12B00, symBinAddr: 0x100013760, symSize: 0x28 }
  - { offsetInCU: 0x78F59, offset: 0x78F59, size: 0x8, addend: 0x0, symName: __ZN8nlohmann16json_abi_v3_11_311ordered_mapINSt3__112basic_stringIcNS2_11char_traitsIcEENS2_9allocatorIcEEEENS0_10basic_jsonIS1_NS2_6vectorES8_bxydS6_NS0_14adl_serializerENSA_IhNS6_IhEEEEvEENS2_4lessIvEENS6_INS2_4pairIKS8_SE_EEEEE5eraseENS2_11__wrap_iterIPSJ_EESO_, symObjAddr: 0xEEC8, symBinAddr: 0x10000FB08, symSize: 0x1F0 }
  - { offsetInCU: 0x79516, offset: 0x79516, size: 0x8, addend: 0x0, symName: __ZNSt3__16vectorINS_4pairIKNS_12basic_stringIcNS_11char_traitsIcEENS_9allocatorIcEEEEN8nlohmann16json_abi_v3_11_310basic_jsonINSA_11ordered_mapES0_S7_bxydS5_NSA_14adl_serializerENS0_IhNS5_IhEEEEvEEEENS5_ISH_EEE8__appendEm, symObjAddr: 0xF0B8, symBinAddr: 0x10000FCF8, symSize: 0x1EC }
  - { offsetInCU: 0x7A09D, offset: 0x7A09D, size: 0x8, addend: 0x0, symName: __ZN8nlohmann16json_abi_v3_11_36detail28json_sax_dom_callback_parserINS0_10basic_jsonINS0_11ordered_mapENSt3__16vectorENS5_12basic_stringIcNS5_11char_traitsIcEENS5_9allocatorIcEEEEbxydSA_NS0_14adl_serializerENS6_IhNSA_IhEEEEvEEE12handle_valueIRdEENS5_4pairIbPSG_EEOT_b.cold.1, symObjAddr: 0x12B50, symBinAddr: 0x1000137B0, symSize: 0x24 }
  - { offsetInCU: 0x7A150, offset: 0x7A150, size: 0x8, addend: 0x0, symName: __ZN8nlohmann16json_abi_v3_11_36detail28json_sax_dom_callback_parserINS0_10basic_jsonINS0_11ordered_mapENSt3__16vectorENS5_12basic_stringIcNS5_11char_traitsIcEENS5_9allocatorIcEEEEbxydSA_NS0_14adl_serializerENS6_IhNSA_IhEEEEvEEE12handle_valueIRbEENS5_4pairIbPSG_EEOT_b.cold.1, symObjAddr: 0x12B74, symBinAddr: 0x1000137D4, symSize: 0x24 }
  - { offsetInCU: 0x7A168, offset: 0x7A168, size: 0x8, addend: 0x0, symName: __ZN8nlohmann16json_abi_v3_11_36detail28json_sax_dom_callback_parserINS0_10basic_jsonINS0_11ordered_mapENSt3__16vectorENS5_12basic_stringIcNS5_11char_traitsIcEENS5_9allocatorIcEEEEbxydSA_NS0_14adl_serializerENS6_IhNSA_IhEEEEvEEE12handle_valueIDnEENS5_4pairIbPSG_EEOT_b.cold.1, symObjAddr: 0x12B98, symBinAddr: 0x1000137F8, symSize: 0x24 }
  - { offsetInCU: 0x7A297, offset: 0x7A297, size: 0x8, addend: 0x0, symName: __ZN8nlohmann16json_abi_v3_11_36detail28json_sax_dom_callback_parserINS0_10basic_jsonINS0_11ordered_mapENSt3__16vectorENS5_12basic_stringIcNS5_11char_traitsIcEENS5_9allocatorIcEEEEbxydSA_NS0_14adl_serializerENS6_IhNSA_IhEEEEvEEE12handle_valueIRxEENS5_4pairIbPSG_EEOT_b.cold.1, symObjAddr: 0x12BBC, symBinAddr: 0x10001381C, symSize: 0x24 }
  - { offsetInCU: 0x7A2AF, offset: 0x7A2AF, size: 0x8, addend: 0x0, symName: __ZN8nlohmann16json_abi_v3_11_36detail28json_sax_dom_callback_parserINS0_10basic_jsonINS0_11ordered_mapENSt3__16vectorENS5_12basic_stringIcNS5_11char_traitsIcEENS5_9allocatorIcEEEEbxydSA_NS0_14adl_serializerENS6_IhNSA_IhEEEEvEEE12handle_valueIRSC_EENS5_4pairIbPSG_EEOT_b.cold.1, symObjAddr: 0x12BE0, symBinAddr: 0x100013840, symSize: 0x24 }
  - { offsetInCU: 0x7A3DE, offset: 0x7A3DE, size: 0x8, addend: 0x0, symName: __ZN8nlohmann16json_abi_v3_11_36detail28json_sax_dom_callback_parserINS0_10basic_jsonINS0_11ordered_mapENSt3__16vectorENS5_12basic_stringIcNS5_11char_traitsIcEENS5_9allocatorIcEEEEbxydSA_NS0_14adl_serializerENS6_IhNSA_IhEEEEvEEE12handle_valueIRyEENS5_4pairIbPSG_EEOT_b.cold.1, symObjAddr: 0x12C04, symBinAddr: 0x100013864, symSize: 0x24 }
  - { offsetInCU: 0x7A3F6, offset: 0x7A3F6, size: 0x8, addend: 0x0, symName: __ZN8nlohmann16json_abi_v3_11_36detail11parse_errorD0Ev, symObjAddr: 0x10154, symBinAddr: 0x100010D94, symSize: 0x38 }
  - { offsetInCU: 0x7A5D5, offset: 0x7A5D5, size: 0x8, addend: 0x0, symName: __ZN8nlohmann16json_abi_v3_11_36detail19json_sax_dom_parserINS0_10basic_jsonINS0_11ordered_mapENSt3__16vectorENS5_12basic_stringIcNS5_11char_traitsIcEENS5_9allocatorIcEEEEbxydSA_NS0_14adl_serializerENS6_IhNSA_IhEEEEvEEE12handle_valueINS1_7value_tEEEPSG_OT_, symObjAddr: 0x10AFC, symBinAddr: 0x10001173C, symSize: 0xFC }
  - { offsetInCU: 0x7A897, offset: 0x7A897, size: 0x8, addend: 0x0, symName: __ZN8nlohmann16json_abi_v3_11_36detail19json_sax_dom_parserINS0_10basic_jsonINS0_11ordered_mapENSt3__16vectorENS5_12basic_stringIcNS5_11char_traitsIcEENS5_9allocatorIcEEEEbxydSA_NS0_14adl_serializerENS6_IhNSA_IhEEEEvEEE3keyERSC_.cold.1, symObjAddr: 0x12C28, symBinAddr: 0x100013888, symSize: 0x28 }
  - { offsetInCU: 0x7A8AF, offset: 0x7A8AF, size: 0x8, addend: 0x0, symName: __ZN8nlohmann16json_abi_v3_11_36detail19json_sax_dom_parserINS0_10basic_jsonINS0_11ordered_mapENSt3__16vectorENS5_12basic_stringIcNS5_11char_traitsIcEENS5_9allocatorIcEEEEbxydSA_NS0_14adl_serializerENS6_IhNSA_IhEEEEvEEE3keyERSC_.cold.2, symObjAddr: 0x12C50, symBinAddr: 0x1000138B0, symSize: 0x28 }
  - { offsetInCU: 0x7A9B2, offset: 0x7A9B2, size: 0x8, addend: 0x0, symName: __ZNSt3__16vectorIN8nlohmann16json_abi_v3_11_310basic_jsonINS2_11ordered_mapES0_NS_12basic_stringIcNS_11char_traitsIcEENS_9allocatorIcEEEEbxydS8_NS2_14adl_serializerENS0_IhNS8_IhEEEEvEENS8_ISE_EEE24__emplace_back_slow_pathIJNS2_6detail7value_tEEEEvDpOT_, symObjAddr: 0x10BF8, symBinAddr: 0x100011838, symSize: 0x150 }
  - { offsetInCU: 0x7AFE6, offset: 0x7AFE6, size: 0x8, addend: 0x0, symName: __ZN8nlohmann16json_abi_v3_11_36detail19json_sax_dom_parserINS0_10basic_jsonINS0_11ordered_mapENSt3__16vectorENS5_12basic_stringIcNS5_11char_traitsIcEENS5_9allocatorIcEEEEbxydSA_NS0_14adl_serializerENS6_IhNSA_IhEEEEvEEE12handle_valueINS1_7value_tEEEPSG_OT_.cold.1, symObjAddr: 0x12C78, symBinAddr: 0x1000138D8, symSize: 0x24 }
  - { offsetInCU: 0x7AFFE, offset: 0x7AFFE, size: 0x8, addend: 0x0, symName: __ZN8nlohmann16json_abi_v3_11_36detail19json_sax_dom_parserINS0_10basic_jsonINS0_11ordered_mapENSt3__16vectorENS5_12basic_stringIcNS5_11char_traitsIcEENS5_9allocatorIcEEEEbxydSA_NS0_14adl_serializerENS6_IhNSA_IhEEEEvEEE12handle_valueINS1_7value_tEEEPSG_OT_.cold.2, symObjAddr: 0x12C9C, symBinAddr: 0x1000138FC, symSize: 0x24 }
  - { offsetInCU: 0x7B101, offset: 0x7B101, size: 0x8, addend: 0x0, symName: __ZNSt3__16vectorIN8nlohmann16json_abi_v3_11_310basic_jsonINS2_11ordered_mapES0_NS_12basic_stringIcNS_11char_traitsIcEENS_9allocatorIcEEEEbxydS8_NS2_14adl_serializerENS0_IhNS8_IhEEEEvEENS8_ISE_EEE24__emplace_back_slow_pathIJRdEEEvDpOT_, symObjAddr: 0x10E44, symBinAddr: 0x100011A84, symSize: 0x12C }
  - { offsetInCU: 0x7B724, offset: 0x7B724, size: 0x8, addend: 0x0, symName: __ZN8nlohmann16json_abi_v3_11_36detail19json_sax_dom_parserINS0_10basic_jsonINS0_11ordered_mapENSt3__16vectorENS5_12basic_stringIcNS5_11char_traitsIcEENS5_9allocatorIcEEEEbxydSA_NS0_14adl_serializerENS6_IhNSA_IhEEEEvEEE12handle_valueIRbEEPSG_OT_, symObjAddr: 0x10F70, symBinAddr: 0x100011BB0, symSize: 0xF4 }
  - { offsetInCU: 0x7B73A, offset: 0x7B73A, size: 0x8, addend: 0x0, symName: __ZN8nlohmann16json_abi_v3_11_36detail19json_sax_dom_parserINS0_10basic_jsonINS0_11ordered_mapENSt3__16vectorENS5_12basic_stringIcNS5_11char_traitsIcEENS5_9allocatorIcEEEEbxydSA_NS0_14adl_serializerENS6_IhNSA_IhEEEEvEEE12handle_valueIRdEEPSG_OT_.cold.1, symObjAddr: 0x12CC0, symBinAddr: 0x100013920, symSize: 0x24 }
  - { offsetInCU: 0x7B752, offset: 0x7B752, size: 0x8, addend: 0x0, symName: __ZN8nlohmann16json_abi_v3_11_36detail19json_sax_dom_parserINS0_10basic_jsonINS0_11ordered_mapENSt3__16vectorENS5_12basic_stringIcNS5_11char_traitsIcEENS5_9allocatorIcEEEEbxydSA_NS0_14adl_serializerENS6_IhNSA_IhEEEEvEEE12handle_valueIRdEEPSG_OT_.cold.2, symObjAddr: 0x12CE4, symBinAddr: 0x100013944, symSize: 0x24 }
  - { offsetInCU: 0x7B855, offset: 0x7B855, size: 0x8, addend: 0x0, symName: __ZNSt3__16vectorIN8nlohmann16json_abi_v3_11_310basic_jsonINS2_11ordered_mapES0_NS_12basic_stringIcNS_11char_traitsIcEENS_9allocatorIcEEEEbxydS8_NS2_14adl_serializerENS0_IhNS8_IhEEEEvEENS8_ISE_EEE24__emplace_back_slow_pathIJRbEEEvDpOT_, symObjAddr: 0x11064, symBinAddr: 0x100011CA4, symSize: 0x128 }
  - { offsetInCU: 0x7BE58, offset: 0x7BE58, size: 0x8, addend: 0x0, symName: __ZN8nlohmann16json_abi_v3_11_36detail19json_sax_dom_parserINS0_10basic_jsonINS0_11ordered_mapENSt3__16vectorENS5_12basic_stringIcNS5_11char_traitsIcEENS5_9allocatorIcEEEEbxydSA_NS0_14adl_serializerENS6_IhNSA_IhEEEEvEEE12handle_valueIDnEEPSG_OT_, symObjAddr: 0x1118C, symBinAddr: 0x100011DCC, symSize: 0xE8 }
  - { offsetInCU: 0x7BE6E, offset: 0x7BE6E, size: 0x8, addend: 0x0, symName: __ZN8nlohmann16json_abi_v3_11_36detail19json_sax_dom_parserINS0_10basic_jsonINS0_11ordered_mapENSt3__16vectorENS5_12basic_stringIcNS5_11char_traitsIcEENS5_9allocatorIcEEEEbxydSA_NS0_14adl_serializerENS6_IhNSA_IhEEEEvEEE12handle_valueIRbEEPSG_OT_.cold.1, symObjAddr: 0x12D08, symBinAddr: 0x100013968, symSize: 0x24 }
  - { offsetInCU: 0x7BE86, offset: 0x7BE86, size: 0x8, addend: 0x0, symName: __ZN8nlohmann16json_abi_v3_11_36detail19json_sax_dom_parserINS0_10basic_jsonINS0_11ordered_mapENSt3__16vectorENS5_12basic_stringIcNS5_11char_traitsIcEENS5_9allocatorIcEEEEbxydSA_NS0_14adl_serializerENS6_IhNSA_IhEEEEvEEE12handle_valueIRbEEPSG_OT_.cold.2, symObjAddr: 0x12D2C, symBinAddr: 0x10001398C, symSize: 0x24 }
  - { offsetInCU: 0x7BF89, offset: 0x7BF89, size: 0x8, addend: 0x0, symName: __ZNSt3__16vectorIN8nlohmann16json_abi_v3_11_310basic_jsonINS2_11ordered_mapES0_NS_12basic_stringIcNS_11char_traitsIcEENS_9allocatorIcEEEEbxydS8_NS2_14adl_serializerENS0_IhNS8_IhEEEEvEENS8_ISE_EEE24__emplace_back_slow_pathIJDnEEEvDpOT_, symObjAddr: 0x11274, symBinAddr: 0x100011EB4, symSize: 0x120 }
  - { offsetInCU: 0x7C49E, offset: 0x7C49E, size: 0x8, addend: 0x0, symName: __ZN8nlohmann16json_abi_v3_11_36detail19json_sax_dom_parserINS0_10basic_jsonINS0_11ordered_mapENSt3__16vectorENS5_12basic_stringIcNS5_11char_traitsIcEENS5_9allocatorIcEEEEbxydSA_NS0_14adl_serializerENS6_IhNSA_IhEEEEvEEE12handle_valueIRxEEPSG_OT_, symObjAddr: 0x11394, symBinAddr: 0x100011FD4, symSize: 0xF4 }
  - { offsetInCU: 0x7C4B4, offset: 0x7C4B4, size: 0x8, addend: 0x0, symName: __ZN8nlohmann16json_abi_v3_11_36detail19json_sax_dom_parserINS0_10basic_jsonINS0_11ordered_mapENSt3__16vectorENS5_12basic_stringIcNS5_11char_traitsIcEENS5_9allocatorIcEEEEbxydSA_NS0_14adl_serializerENS6_IhNSA_IhEEEEvEEE12handle_valueIDnEEPSG_OT_.cold.1, symObjAddr: 0x12D50, symBinAddr: 0x1000139B0, symSize: 0x24 }
  - { offsetInCU: 0x7C4CC, offset: 0x7C4CC, size: 0x8, addend: 0x0, symName: __ZN8nlohmann16json_abi_v3_11_36detail19json_sax_dom_parserINS0_10basic_jsonINS0_11ordered_mapENSt3__16vectorENS5_12basic_stringIcNS5_11char_traitsIcEENS5_9allocatorIcEEEEbxydSA_NS0_14adl_serializerENS6_IhNSA_IhEEEEvEEE12handle_valueIDnEEPSG_OT_.cold.2, symObjAddr: 0x12D74, symBinAddr: 0x1000139D4, symSize: 0x24 }
  - { offsetInCU: 0x7C5CF, offset: 0x7C5CF, size: 0x8, addend: 0x0, symName: __ZNSt3__16vectorIN8nlohmann16json_abi_v3_11_310basic_jsonINS2_11ordered_mapES0_NS_12basic_stringIcNS_11char_traitsIcEENS_9allocatorIcEEEEbxydS8_NS2_14adl_serializerENS0_IhNS8_IhEEEEvEENS8_ISE_EEE24__emplace_back_slow_pathIJRxEEEvDpOT_, symObjAddr: 0x11488, symBinAddr: 0x1000120C8, symSize: 0x128 }
  - { offsetInCU: 0x7CBE0, offset: 0x7CBE0, size: 0x8, addend: 0x0, symName: __ZN8nlohmann16json_abi_v3_11_36detail19json_sax_dom_parserINS0_10basic_jsonINS0_11ordered_mapENSt3__16vectorENS5_12basic_stringIcNS5_11char_traitsIcEENS5_9allocatorIcEEEEbxydSA_NS0_14adl_serializerENS6_IhNSA_IhEEEEvEEE12handle_valueIRSC_EEPSG_OT_, symObjAddr: 0x115B0, symBinAddr: 0x1000121F0, symSize: 0x1E4 }
  - { offsetInCU: 0x7CBF6, offset: 0x7CBF6, size: 0x8, addend: 0x0, symName: __ZN8nlohmann16json_abi_v3_11_36detail19json_sax_dom_parserINS0_10basic_jsonINS0_11ordered_mapENSt3__16vectorENS5_12basic_stringIcNS5_11char_traitsIcEENS5_9allocatorIcEEEEbxydSA_NS0_14adl_serializerENS6_IhNSA_IhEEEEvEEE12handle_valueIRxEEPSG_OT_.cold.1, symObjAddr: 0x12D98, symBinAddr: 0x1000139F8, symSize: 0x24 }
  - { offsetInCU: 0x7CC0E, offset: 0x7CC0E, size: 0x8, addend: 0x0, symName: __ZN8nlohmann16json_abi_v3_11_36detail19json_sax_dom_parserINS0_10basic_jsonINS0_11ordered_mapENSt3__16vectorENS5_12basic_stringIcNS5_11char_traitsIcEENS5_9allocatorIcEEEEbxydSA_NS0_14adl_serializerENS6_IhNSA_IhEEEEvEEE12handle_valueIRxEEPSG_OT_.cold.2, symObjAddr: 0x12DBC, symBinAddr: 0x100013A1C, symSize: 0x24 }
  - { offsetInCU: 0x7CD11, offset: 0x7CD11, size: 0x8, addend: 0x0, symName: __ZNSt3__16vectorIN8nlohmann16json_abi_v3_11_310basic_jsonINS2_11ordered_mapES0_NS_12basic_stringIcNS_11char_traitsIcEENS_9allocatorIcEEEEbxydS8_NS2_14adl_serializerENS0_IhNS8_IhEEEEvEENS8_ISE_EEE24__emplace_back_slow_pathIJRSA_EEEvDpOT_, symObjAddr: 0x11794, symBinAddr: 0x1000123D4, symSize: 0x198 }
  - { offsetInCU: 0x7D675, offset: 0x7D675, size: 0x8, addend: 0x0, symName: __ZN8nlohmann16json_abi_v3_11_36detail19json_sax_dom_parserINS0_10basic_jsonINS0_11ordered_mapENSt3__16vectorENS5_12basic_stringIcNS5_11char_traitsIcEENS5_9allocatorIcEEEEbxydSA_NS0_14adl_serializerENS6_IhNSA_IhEEEEvEEE12handle_valueIRSC_EEPSG_OT_.cold.1, symObjAddr: 0x12DE0, symBinAddr: 0x100013A40, symSize: 0x24 }
  - { offsetInCU: 0x7D68D, offset: 0x7D68D, size: 0x8, addend: 0x0, symName: __ZN8nlohmann16json_abi_v3_11_36detail19json_sax_dom_parserINS0_10basic_jsonINS0_11ordered_mapENSt3__16vectorENS5_12basic_stringIcNS5_11char_traitsIcEENS5_9allocatorIcEEEEbxydSA_NS0_14adl_serializerENS6_IhNSA_IhEEEEvEEE12handle_valueIRSC_EEPSG_OT_.cold.2, symObjAddr: 0x12E04, symBinAddr: 0x100013A64, symSize: 0x24 }
  - { offsetInCU: 0x7D790, offset: 0x7D790, size: 0x8, addend: 0x0, symName: __ZNSt3__16vectorIN8nlohmann16json_abi_v3_11_310basic_jsonINS2_11ordered_mapES0_NS_12basic_stringIcNS_11char_traitsIcEENS_9allocatorIcEEEEbxydS8_NS2_14adl_serializerENS0_IhNS8_IhEEEEvEENS8_ISE_EEE24__emplace_back_slow_pathIJRyEEEvDpOT_, symObjAddr: 0x11A20, symBinAddr: 0x100012660, symSize: 0x128 }
  - { offsetInCU: 0x7DDA1, offset: 0x7DDA1, size: 0x8, addend: 0x0, symName: __ZNSt3__16__treeINS_12__value_typeINS_12basic_stringIcNS_11char_traitsIcEENS_9allocatorIcEEEES7_EENS_19__map_value_compareIS7_S8_NS_4lessIS7_EELb1EEENS5_IS8_EEE7destroyEPNS_11__tree_nodeIS8_PvEE, symObjAddr: 0x11B48, symBinAddr: 0x100012788, symSize: 0x6C }
  - { offsetInCU: 0x7DDB7, offset: 0x7DDB7, size: 0x8, addend: 0x0, symName: __ZN8nlohmann16json_abi_v3_11_36detail19json_sax_dom_parserINS0_10basic_jsonINS0_11ordered_mapENSt3__16vectorENS5_12basic_stringIcNS5_11char_traitsIcEENS5_9allocatorIcEEEEbxydSA_NS0_14adl_serializerENS6_IhNSA_IhEEEEvEEE12handle_valueIRyEEPSG_OT_.cold.1, symObjAddr: 0x12E28, symBinAddr: 0x100013A88, symSize: 0x24 }
  - { offsetInCU: 0x7DDCF, offset: 0x7DDCF, size: 0x8, addend: 0x0, symName: __ZN8nlohmann16json_abi_v3_11_36detail19json_sax_dom_parserINS0_10basic_jsonINS0_11ordered_mapENSt3__16vectorENS5_12basic_stringIcNS5_11char_traitsIcEENS5_9allocatorIcEEEEbxydSA_NS0_14adl_serializerENS6_IhNSA_IhEEEEvEEE12handle_valueIRyEEPSG_OT_.cold.2, symObjAddr: 0x12E4C, symBinAddr: 0x100013AAC, symSize: 0x24 }
  - { offsetInCU: 0x7E29A, offset: 0x7E29A, size: 0x8, addend: 0x0, symName: __ZNSt3__16__treeINS_12__value_typeINS_12basic_stringIcNS_11char_traitsIcEENS_9allocatorIcEEEES7_EENS_19__map_value_compareIS7_S8_NS_4lessIS7_EELb1EEENS5_IS8_EEE12__find_equalIS8_EERPNS_16__tree_node_baseIPvEERPNS_15__tree_end_nodeISJ_EERKT_, symObjAddr: 0x11D04, symBinAddr: 0x100012944, symSize: 0x104 }
  - { offsetInCU: 0x7E543, offset: 0x7E543, size: 0x8, addend: 0x0, symName: __ZNSt3__110unique_ptrINS_11__tree_nodeINS_12__value_typeINS_12basic_stringIcNS_11char_traitsIcEENS_9allocatorIcEEEES8_EEPvEENS_22__tree_node_destructorINS6_ISB_EEEEED1B7v160006Ev, symObjAddr: 0x11E08, symBinAddr: 0x100012A48, symSize: 0x68 }
  - { offsetInCU: 0x7E960, offset: 0x7E960, size: 0x8, addend: 0x0, symName: _OUTLINED_FUNCTION_0, symObjAddr: 0x12E70, symBinAddr: 0x100012C50, symSize: 0x8 }
  - { offsetInCU: 0x7E978, offset: 0x7E978, size: 0x8, addend: 0x0, symName: _OUTLINED_FUNCTION_1, symObjAddr: 0x12E78, symBinAddr: 0x100012C58, symSize: 0x8 }
  - { offsetInCU: 0x7E990, offset: 0x7E990, size: 0x8, addend: 0x0, symName: _OUTLINED_FUNCTION_2, symObjAddr: 0x12E80, symBinAddr: 0x100012C60, symSize: 0x8 }
  - { offsetInCU: 0x7E9A8, offset: 0x7E9A8, size: 0x8, addend: 0x0, symName: _OUTLINED_FUNCTION_3, symObjAddr: 0x12E88, symBinAddr: 0x100012C68, symSize: 0x8 }
...
